

Microchip MPLAB XC8 Assembler V3.00 build 20241204225717 
                                                                                               Fri Jan 16 02:56:46 2026

Microchip MPLAB XC8 C Compiler v3.00 (Free license) build 20241204225717 Og1 
     1                           	processor	16F88
     2                           	pagewidth 120
     3                           	opt	flic
     4                           	psect	idataCOMMON,global,class=CODE,space=0,delta=2,noexec
     5                           	psect	strings,global,class=STRING,space=0,delta=2,noexec
     6                           	psect	cinit,global,class=CODE,space=0,merge=1,delta=2
     7                           	psect	dataCOMMON,global,class=COMMON,space=1,delta=1,noexec
     8                           	psect	bssBANK1,global,class=BANK1,space=1,delta=1,noexec
     9                           	psect	cstackBANK1,global,class=BANK1,space=1,delta=1,noexec
    10                           	psect	cstackCOMMON,global,class=COMMON,space=1,delta=1,noexec
    11                           	psect	cstackBANK0,global,class=BANK0,space=1,delta=1,noexec
    12                           	psect	maintext,global,class=CODE,space=0,split=1,delta=2
    13                           	psect	text1,local,class=CODE,space=0,merge=1,delta=2,group=1
    14                           	psect	text2,local,class=CODE,space=0,merge=1,delta=2,group=4
    15                           	psect	text3,local,class=CODE,space=0,merge=1,delta=2,group=4
    16                           	psect	text4,local,class=CODE,space=0,merge=1,delta=2,group=2
    17                           	psect	text5,local,class=CODE,space=0,merge=1,delta=2,group=2
    18                           	psect	text6,local,class=CODE,space=0,merge=1,delta=2,group=2
    19                           	psect	text7,local,class=CODE,space=0,merge=1,delta=2,group=1
    20                           	psect	text8,local,class=CODE,space=0,merge=1,delta=2
    21                           	psect	text9,local,class=CODE,space=0,merge=1,delta=2,group=4
    22                           	psect	text10,local,class=CODE,space=0,merge=1,delta=2,group=3
    23                           	psect	text11,local,class=CODE,space=0,merge=1,delta=2
    24                           	psect	text12,local,class=CODE,space=0,merge=1,delta=2
    25                           	psect	text13,local,class=CODE,space=0,merge=1,delta=2,group=1
    26                           	psect	text14,local,class=CODE,space=0,merge=1,delta=2
    27                           	psect	text15,local,class=CODE,space=0,merge=1,delta=2,group=4
    28                           	psect	text16,local,class=CODE,space=0,merge=1,delta=2
    29                           	psect	text17,local,class=CODE,space=0,merge=1,delta=2,group=4
    30                           	psect	text18,local,class=CODE,space=0,merge=1,delta=2
    31                           	psect	text19,local,class=CODE,space=0,merge=1,delta=2,group=4
    32                           	psect	text20,local,class=CODE,space=0,merge=1,delta=2,group=3
    33                           	psect	text21,local,class=CODE,space=0,merge=1,delta=2,group=1
    34                           	psect	intentry,global,class=CODE,space=0,delta=2
    35                           	psect	idloc,global,abs,ovrld,class=IDLOC,space=5,delta=2,noexec
    36                           	psect	config,global,abs,ovrld,class=CONFIG,space=4,delta=2,noexec
    37                           	dabs	1,0x7E,2
    38     0000                     
    39                           ; Version 2.40
    40                           ; Generated 17/11/2021 GMT
    41                           ; 
    42                           ; Copyright © 2021, Microchip Technology Inc. and its subsidiaries ("Microchip")
    43                           ; All rights reserved.
    44                           ; 
    45                           ; This software is developed by Microchip Technology Inc. and its subsidiaries ("Microch
      +                          ip").
    46                           ; 
    47                           ; Redistribution and use in source and binary forms, with or without modification, are
    48                           ; permitted provided that the following conditions are met:
    49                           ; 
    50                           ;     1. Redistributions of source code must retain the above copyright notice, this lis
      +                          t of
    51                           ;        conditions and the following disclaimer.
    52                           ; 
    53                           ;     2. Redistributions in binary form must reproduce the above copyright notice, this 
      +                          list
    54                           ;        of conditions and the following disclaimer in the documentation and/or other
    55                           ;        materials provided with the distribution. Publication is not required when
    56                           ;        this file is used in an embedded application.
    57                           ; 
    58                           ;     3. Microchip's name may not be used to endorse or promote products derived from th
      +                          is
    59                           ;        software without specific prior written permission.
    60                           ; 
    61                           ; THIS SOFTWARE IS PROVIDED BY MICROCHIP "AS IS" AND ANY EXPRESS OR IMPLIED WARRANTIES,
    62                           ; INCLUDING, BUT NOT LIMITED TO, THE IMPLIED WARRANTIES OF MERCHANTABILITY AND FITNESS F
      +                          OR
    63                           ; PURPOSE ARE DISCLAIMED.  IN NO EVENT SHALL MICROCHIP BE LIABLE FOR ANY DIRECT, INDIREC
      +                          T,
    64                           ; INCIDENTAL, SPECIAL, EXEMPLARY, OR CONSEQUENTIAL DAMAGES (INCLUDING BUT NOT LIMITED TO
    65                           ; PROCUREMENT OF SUBSTITUTE GOODS OR SERVICES; LOSS OF USE, DATA OR PROFITS; OR BUSINESS
    66                           ; INTERRUPTION) HOWSOEVER CAUSED AND ON ANY THEORY OF LIABILITY, WHETHER IN CONTRACT, ST
      +                          RICT
    67                           ; LIABILITY, OR TORT (INCLUDING NEGLIGENCE OR OTHERWISE) ARISING IN ANY WAY OUT OF THE U
      +                          SE OF
    68                           ; THIS SOFTWARE, EVEN IF ADVISED OF THE POSSIBILITY OF SUCH DAMAGE.
    69                           ; 
    70                           ; 
    71                           ; Code-generator required, PIC16F88 Definitions
    72                           ; 
    73                           ; SFR Addresses
    74     0004                     fsr             equ	4
    75     0004                     fsr0            equ	4
    76     0000                     indf            equ	0
    77     0000                     indf0           equ	0
    78     0002                     pc              equ	2
    79     0002                     pcl             equ	2
    80     000A                     pclath          equ	10
    81     0003                     status          equ	3
    82     0000                     INDF            equ	0	;# 
    83     0001                     TMR0            equ	1	;# 
    84     0002                     PCL             equ	2	;# 
    85     0003                     STATUS          equ	3	;# 
    86     0004                     FSR             equ	4	;# 
    87     0005                     PORTA           equ	5	;# 
    88     0006                     PORTB           equ	6	;# 
    89     000A                     PCLATH          equ	10	;# 
    90     000B                     INTCON          equ	11	;# 
    91     000C                     PIR1            equ	12	;# 
    92     000D                     PIR2            equ	13	;# 
    93     000E                     TMR1            equ	14	;# 
    94     000E                     TMR1L           equ	14	;# 
    95     000F                     TMR1H           equ	15	;# 
    96     0010                     T1CON           equ	16	;# 
    97     0011                     TMR2            equ	17	;# 
    98     0012                     T2CON           equ	18	;# 
    99     0013                     SSPBUF          equ	19	;# 
   100     0014                     SSPCON          equ	20	;# 
   101     0015                     CCPR1           equ	21	;# 
   102     0015                     CCPR1L          equ	21	;# 
   103     0016                     CCPR1H          equ	22	;# 
   104     0017                     CCP1CON         equ	23	;# 
   105     0018                     RCSTA           equ	24	;# 
   106     0019                     TXREG           equ	25	;# 
   107     001A                     RCREG           equ	26	;# 
   108     001E                     ADRESH          equ	30	;# 
   109     001F                     ADCON0          equ	31	;# 
   110     0081                     OPTION_REG      equ	129	;# 
   111     0085                     TRISA           equ	133	;# 
   112     0086                     TRISB           equ	134	;# 
   113     008C                     PIE1            equ	140	;# 
   114     008D                     PIE2            equ	141	;# 
   115     008E                     PCON            equ	142	;# 
   116     008F                     OSCCON          equ	143	;# 
   117     0090                     OSCTUNE         equ	144	;# 
   118     0092                     PR2             equ	146	;# 
   119     0093                     SSPADD          equ	147	;# 
   120     0094                     SSPSTAT         equ	148	;# 
   121     0098                     TXSTA           equ	152	;# 
   122     0099                     SPBRG           equ	153	;# 
   123     009B                     ANSEL           equ	155	;# 
   124     009C                     CMCON           equ	156	;# 
   125     009D                     CVRCON          equ	157	;# 
   126     009E                     ADRESL          equ	158	;# 
   127     009F                     ADCON1          equ	159	;# 
   128     0105                     WDTCON          equ	261	;# 
   129     010C                     EEDATA          equ	268	;# 
   130     010D                     EEADR           equ	269	;# 
   131     010E                     EEDATH          equ	270	;# 
   132     010F                     EEADRH          equ	271	;# 
   133     018C                     EECON1          equ	396	;# 
   134     018D                     EECON2          equ	397	;# 
   135     0000                     INDF            equ	0	;# 
   136     0001                     TMR0            equ	1	;# 
   137     0002                     PCL             equ	2	;# 
   138     0003                     STATUS          equ	3	;# 
   139     0004                     FSR             equ	4	;# 
   140     0005                     PORTA           equ	5	;# 
   141     0006                     PORTB           equ	6	;# 
   142     000A                     PCLATH          equ	10	;# 
   143     000B                     INTCON          equ	11	;# 
   144     000C                     PIR1            equ	12	;# 
   145     000D                     PIR2            equ	13	;# 
   146     000E                     TMR1            equ	14	;# 
   147     000E                     TMR1L           equ	14	;# 
   148     000F                     TMR1H           equ	15	;# 
   149     0010                     T1CON           equ	16	;# 
   150     0011                     TMR2            equ	17	;# 
   151     0012                     T2CON           equ	18	;# 
   152     0013                     SSPBUF          equ	19	;# 
   153     0014                     SSPCON          equ	20	;# 
   154     0015                     CCPR1           equ	21	;# 
   155     0015                     CCPR1L          equ	21	;# 
   156     0016                     CCPR1H          equ	22	;# 
   157     0017                     CCP1CON         equ	23	;# 
   158     0018                     RCSTA           equ	24	;# 
   159     0019                     TXREG           equ	25	;# 
   160     001A                     RCREG           equ	26	;# 
   161     001E                     ADRESH          equ	30	;# 
   162     001F                     ADCON0          equ	31	;# 
   163     0081                     OPTION_REG      equ	129	;# 
   164     0085                     TRISA           equ	133	;# 
   165     0086                     TRISB           equ	134	;# 
   166     008C                     PIE1            equ	140	;# 
   167     008D                     PIE2            equ	141	;# 
   168     008E                     PCON            equ	142	;# 
   169     008F                     OSCCON          equ	143	;# 
   170     0090                     OSCTUNE         equ	144	;# 
   171     0092                     PR2             equ	146	;# 
   172     0093                     SSPADD          equ	147	;# 
   173     0094                     SSPSTAT         equ	148	;# 
   174     0098                     TXSTA           equ	152	;# 
   175     0099                     SPBRG           equ	153	;# 
   176     009B                     ANSEL           equ	155	;# 
   177     009C                     CMCON           equ	156	;# 
   178     009D                     CVRCON          equ	157	;# 
   179     009E                     ADRESL          equ	158	;# 
   180     009F                     ADCON1          equ	159	;# 
   181     0105                     WDTCON          equ	261	;# 
   182     010C                     EEDATA          equ	268	;# 
   183     010D                     EEADR           equ	269	;# 
   184     010E                     EEDATH          equ	270	;# 
   185     010F                     EEADRH          equ	271	;# 
   186     018C                     EECON1          equ	396	;# 
   187     018D                     EECON2          equ	397	;# 
   188     0000                     INDF            equ	0	;# 
   189     0001                     TMR0            equ	1	;# 
   190     0002                     PCL             equ	2	;# 
   191     0003                     STATUS          equ	3	;# 
   192     0004                     FSR             equ	4	;# 
   193     0005                     PORTA           equ	5	;# 
   194     0006                     PORTB           equ	6	;# 
   195     000A                     PCLATH          equ	10	;# 
   196     000B                     INTCON          equ	11	;# 
   197     000C                     PIR1            equ	12	;# 
   198     000D                     PIR2            equ	13	;# 
   199     000E                     TMR1            equ	14	;# 
   200     000E                     TMR1L           equ	14	;# 
   201     000F                     TMR1H           equ	15	;# 
   202     0010                     T1CON           equ	16	;# 
   203     0011                     TMR2            equ	17	;# 
   204     0012                     T2CON           equ	18	;# 
   205     0013                     SSPBUF          equ	19	;# 
   206     0014                     SSPCON          equ	20	;# 
   207     0015                     CCPR1           equ	21	;# 
   208     0015                     CCPR1L          equ	21	;# 
   209     0016                     CCPR1H          equ	22	;# 
   210     0017                     CCP1CON         equ	23	;# 
   211     0018                     RCSTA           equ	24	;# 
   212     0019                     TXREG           equ	25	;# 
   213     001A                     RCREG           equ	26	;# 
   214     001E                     ADRESH          equ	30	;# 
   215     001F                     ADCON0          equ	31	;# 
   216     0081                     OPTION_REG      equ	129	;# 
   217     0085                     TRISA           equ	133	;# 
   218     0086                     TRISB           equ	134	;# 
   219     008C                     PIE1            equ	140	;# 
   220     008D                     PIE2            equ	141	;# 
   221     008E                     PCON            equ	142	;# 
   222     008F                     OSCCON          equ	143	;# 
   223     0090                     OSCTUNE         equ	144	;# 
   224     0092                     PR2             equ	146	;# 
   225     0093                     SSPADD          equ	147	;# 
   226     0094                     SSPSTAT         equ	148	;# 
   227     0098                     TXSTA           equ	152	;# 
   228     0099                     SPBRG           equ	153	;# 
   229     009B                     ANSEL           equ	155	;# 
   230     009C                     CMCON           equ	156	;# 
   231     009D                     CVRCON          equ	157	;# 
   232     009E                     ADRESL          equ	158	;# 
   233     009F                     ADCON1          equ	159	;# 
   234     0105                     WDTCON          equ	261	;# 
   235     010C                     EEDATA          equ	268	;# 
   236     010D                     EEADR           equ	269	;# 
   237     010E                     EEDATH          equ	270	;# 
   238     010F                     EEADRH          equ	271	;# 
   239     018C                     EECON1          equ	396	;# 
   240     018D                     EECON2          equ	397	;# 
   241     0000                     INDF            equ	0	;# 
   242     0001                     TMR0            equ	1	;# 
   243     0002                     PCL             equ	2	;# 
   244     0003                     STATUS          equ	3	;# 
   245     0004                     FSR             equ	4	;# 
   246     0005                     PORTA           equ	5	;# 
   247     0006                     PORTB           equ	6	;# 
   248     000A                     PCLATH          equ	10	;# 
   249     000B                     INTCON          equ	11	;# 
   250     000C                     PIR1            equ	12	;# 
   251     000D                     PIR2            equ	13	;# 
   252     000E                     TMR1            equ	14	;# 
   253     000E                     TMR1L           equ	14	;# 
   254     000F                     TMR1H           equ	15	;# 
   255     0010                     T1CON           equ	16	;# 
   256     0011                     TMR2            equ	17	;# 
   257     0012                     T2CON           equ	18	;# 
   258     0013                     SSPBUF          equ	19	;# 
   259     0014                     SSPCON          equ	20	;# 
   260     0015                     CCPR1           equ	21	;# 
   261     0015                     CCPR1L          equ	21	;# 
   262     0016                     CCPR1H          equ	22	;# 
   263     0017                     CCP1CON         equ	23	;# 
   264     0018                     RCSTA           equ	24	;# 
   265     0019                     TXREG           equ	25	;# 
   266     001A                     RCREG           equ	26	;# 
   267     001E                     ADRESH          equ	30	;# 
   268     001F                     ADCON0          equ	31	;# 
   269     0081                     OPTION_REG      equ	129	;# 
   270     0085                     TRISA           equ	133	;# 
   271     0086                     TRISB           equ	134	;# 
   272     008C                     PIE1            equ	140	;# 
   273     008D                     PIE2            equ	141	;# 
   274     008E                     PCON            equ	142	;# 
   275     008F                     OSCCON          equ	143	;# 
   276     0090                     OSCTUNE         equ	144	;# 
   277     0092                     PR2             equ	146	;# 
   278     0093                     SSPADD          equ	147	;# 
   279     0094                     SSPSTAT         equ	148	;# 
   280     0098                     TXSTA           equ	152	;# 
   281     0099                     SPBRG           equ	153	;# 
   282     009B                     ANSEL           equ	155	;# 
   283     009C                     CMCON           equ	156	;# 
   284     009D                     CVRCON          equ	157	;# 
   285     009E                     ADRESL          equ	158	;# 
   286     009F                     ADCON1          equ	159	;# 
   287     0105                     WDTCON          equ	261	;# 
   288     010C                     EEDATA          equ	268	;# 
   289     010D                     EEADR           equ	269	;# 
   290     010E                     EEDATH          equ	270	;# 
   291     010F                     EEADRH          equ	271	;# 
   292     018C                     EECON1          equ	396	;# 
   293     018D                     EECON2          equ	397	;# 
   294     0000                     INDF            equ	0	;# 
   295     0001                     TMR0            equ	1	;# 
   296     0002                     PCL             equ	2	;# 
   297     0003                     STATUS          equ	3	;# 
   298     0004                     FSR             equ	4	;# 
   299     0005                     PORTA           equ	5	;# 
   300     0006                     PORTB           equ	6	;# 
   301     000A                     PCLATH          equ	10	;# 
   302     000B                     INTCON          equ	11	;# 
   303     000C                     PIR1            equ	12	;# 
   304     000D                     PIR2            equ	13	;# 
   305     000E                     TMR1            equ	14	;# 
   306     000E                     TMR1L           equ	14	;# 
   307     000F                     TMR1H           equ	15	;# 
   308     0010                     T1CON           equ	16	;# 
   309     0011                     TMR2            equ	17	;# 
   310     0012                     T2CON           equ	18	;# 
   311     0013                     SSPBUF          equ	19	;# 
   312     0014                     SSPCON          equ	20	;# 
   313     0015                     CCPR1           equ	21	;# 
   314     0015                     CCPR1L          equ	21	;# 
   315     0016                     CCPR1H          equ	22	;# 
   316     0017                     CCP1CON         equ	23	;# 
   317     0018                     RCSTA           equ	24	;# 
   318     0019                     TXREG           equ	25	;# 
   319     001A                     RCREG           equ	26	;# 
   320     001E                     ADRESH          equ	30	;# 
   321     001F                     ADCON0          equ	31	;# 
   322     0081                     OPTION_REG      equ	129	;# 
   323     0085                     TRISA           equ	133	;# 
   324     0086                     TRISB           equ	134	;# 
   325     008C                     PIE1            equ	140	;# 
   326     008D                     PIE2            equ	141	;# 
   327     008E                     PCON            equ	142	;# 
   328     008F                     OSCCON          equ	143	;# 
   329     0090                     OSCTUNE         equ	144	;# 
   330     0092                     PR2             equ	146	;# 
   331     0093                     SSPADD          equ	147	;# 
   332     0094                     SSPSTAT         equ	148	;# 
   333     0098                     TXSTA           equ	152	;# 
   334     0099                     SPBRG           equ	153	;# 
   335     009B                     ANSEL           equ	155	;# 
   336     009C                     CMCON           equ	156	;# 
   337     009D                     CVRCON          equ	157	;# 
   338     009E                     ADRESL          equ	158	;# 
   339     009F                     ADCON1          equ	159	;# 
   340     0105                     WDTCON          equ	261	;# 
   341     010C                     EEDATA          equ	268	;# 
   342     010D                     EEADR           equ	269	;# 
   343     010E                     EEDATH          equ	270	;# 
   344     010F                     EEADRH          equ	271	;# 
   345     018C                     EECON1          equ	396	;# 
   346     018D                     EECON2          equ	397	;# 
   347     0000                     INDF            equ	0	;# 
   348     0001                     TMR0            equ	1	;# 
   349     0002                     PCL             equ	2	;# 
   350     0003                     STATUS          equ	3	;# 
   351     0004                     FSR             equ	4	;# 
   352     0005                     PORTA           equ	5	;# 
   353     0006                     PORTB           equ	6	;# 
   354     000A                     PCLATH          equ	10	;# 
   355     000B                     INTCON          equ	11	;# 
   356     000C                     PIR1            equ	12	;# 
   357     000D                     PIR2            equ	13	;# 
   358     000E                     TMR1            equ	14	;# 
   359     000E                     TMR1L           equ	14	;# 
   360     000F                     TMR1H           equ	15	;# 
   361     0010                     T1CON           equ	16	;# 
   362     0011                     TMR2            equ	17	;# 
   363     0012                     T2CON           equ	18	;# 
   364     0013                     SSPBUF          equ	19	;# 
   365     0014                     SSPCON          equ	20	;# 
   366     0015                     CCPR1           equ	21	;# 
   367     0015                     CCPR1L          equ	21	;# 
   368     0016                     CCPR1H          equ	22	;# 
   369     0017                     CCP1CON         equ	23	;# 
   370     0018                     RCSTA           equ	24	;# 
   371     0019                     TXREG           equ	25	;# 
   372     001A                     RCREG           equ	26	;# 
   373     001E                     ADRESH          equ	30	;# 
   374     001F                     ADCON0          equ	31	;# 
   375     0081                     OPTION_REG      equ	129	;# 
   376     0085                     TRISA           equ	133	;# 
   377     0086                     TRISB           equ	134	;# 
   378     008C                     PIE1            equ	140	;# 
   379     008D                     PIE2            equ	141	;# 
   380     008E                     PCON            equ	142	;# 
   381     008F                     OSCCON          equ	143	;# 
   382     0090                     OSCTUNE         equ	144	;# 
   383     0092                     PR2             equ	146	;# 
   384     0093                     SSPADD          equ	147	;# 
   385     0094                     SSPSTAT         equ	148	;# 
   386     0098                     TXSTA           equ	152	;# 
   387     0099                     SPBRG           equ	153	;# 
   388     009B                     ANSEL           equ	155	;# 
   389     009C                     CMCON           equ	156	;# 
   390     009D                     CVRCON          equ	157	;# 
   391     009E                     ADRESL          equ	158	;# 
   392     009F                     ADCON1          equ	159	;# 
   393     0105                     WDTCON          equ	261	;# 
   394     010C                     EEDATA          equ	268	;# 
   395     010D                     EEADR           equ	269	;# 
   396     010E                     EEDATH          equ	270	;# 
   397     010F                     EEADRH          equ	271	;# 
   398     018C                     EECON1          equ	396	;# 
   399     018D                     EECON2          equ	397	;# 
   400                           
   401                           	psect	idataCOMMON
   402     07FA                     __pidataCOMMON:
   403                           
   404                           ;initializer for _current_freq_mhz
   405     07FA  3408               	retlw	8
   406                           
   407                           	psect	strings
   408     0600                     __pstrings:
   409     0600                     stringtab:
   410     0600                     __stringtab:
   411                           
   412                           ;	String table - string pointers are 1 byte each
   413     0600  1BFF               	btfsc	btemp+1,7
   414     0601  2E0A               	ljmp	stringcode
   415     0602  1383               	bcf	3,7
   416     0603  187F               	btfsc	btemp+1,0
   417     0604  1783               	bsf	3,7
   418     0605  0800               	movf	0,w
   419     0606  0A84               	incf	4,f
   420     0607  1903               	skipnz
   421     0608  0AFF               	incf	btemp+1,f
   422     0609  0008               	return
   423     060A                     stringcode:
   424     060A                     stringdir:
   425     060A  3006               	movlw	high stringdir
   426     060B  008A               	movwf	10
   427     060C  0804               	movf	4,w
   428     060D  0A84               	incf	4,f
   429     060E  0782               	addwf	2,f
   430     060F                     __stringbase:
   431     060F  3400               	retlw	0
   432     0610                     __end_of__stringtab:
   433     0610                     main@calibrationInterval:
   434     0610  3410               	retlw	16
   435     0611  3427               	retlw	39
   436     0612  3400               	retlw	0
   437     0613  3400               	retlw	0
   438     0614                     __end_ofmain@calibrationInterval:
   439     001E                     _ADRESH         set	30
   440     001F                     _ADCON0         set	31
   441     001F                     _ADCON0bits     set	31
   442     0019                     _TXREG          set	25
   443     0001                     _TMR0           set	1
   444     00C4                     _CREN           set	196
   445     00C7                     _SPEN           set	199
   446     005F                     _GIE            set	95
   447     005D                     _TMR0IE         set	93
   448     005A                     _TMR0IF         set	90
   449     009E                     _ADRESL         set	158
   450     009F                     _ADCON1         set	159
   451     0086                     _TRISBbits      set	134
   452     0099                     _SPBRG          set	153
   453     0081                     _OPTION_REG     set	129
   454     0085                     _TRISAbits      set	133
   455     009B                     _ANSEL          set	155
   456     008F                     _OSCCON         set	143
   457     04C1                     _TRMT           set	1217
   458     04C5                     _TXEN           set	1221
   459     04C4                     _SYNC           set	1220
   460     04C2                     _BRGH           set	1218
   461     0614                     STR_1:
   462     0614  3441               	retlw	65	;'A'
   463     0615  3443               	retlw	67	;'C'
   464     0616  3453               	retlw	83	;'S'
   465     0617  3437               	retlw	55	;'7'
   466     0618  3431               	retlw	49	;'1'
   467     0619  3432               	retlw	50	;'2'
   468     061A  3420               	retlw	32	;' '
   469     061B  3441               	retlw	65	;'A'
   470     061C  3443               	retlw	67	;'C'
   471     061D  3420               	retlw	32	;' '
   472     061E  3449               	retlw	73	;'I'
   473     061F  346E               	retlw	110	;'n'
   474     0620  3474               	retlw	116	;'t'
   475     0621  3465               	retlw	101	;'e'
   476     0622  3467               	retlw	103	;'g'
   477     0623  3465               	retlw	101	;'e'
   478     0624  3472               	retlw	114	;'r'
   479     0625  3420               	retlw	32	;' '
   480     0626  3454               	retlw	84	;'T'
   481     0627  3465               	retlw	101	;'e'
   482     0628  3473               	retlw	115	;'s'
   483     0629  3474               	retlw	116	;'t'
   484     062A  340D               	retlw	13
   485     062B  340A               	retlw	10
   486     062C  3400               	retlw	0
   487     062D                     STR_3:
   488     062D  3452               	retlw	82	;'R'
   489     062E  3465               	retlw	101	;'e'
   490     062F  3463               	retlw	99	;'c'
   491     0630  3461               	retlw	97	;'a'
   492     0631  346C               	retlw	108	;'l'
   493     0632  3469               	retlw	105	;'i'
   494     0633  3462               	retlw	98	;'b'
   495     0634  3472               	retlw	114	;'r'
   496     0635  3461               	retlw	97	;'a'
   497     0636  3474               	retlw	116	;'t'
   498     0637  3469               	retlw	105	;'i'
   499     0638  346E               	retlw	110	;'n'
   500     0639  3467               	retlw	103	;'g'
   501     063A  342E               	retlw	46	;'.'
   502     063B  342E               	retlw	46	;'.'
   503     063C  342E               	retlw	46	;'.'
   504     063D  340D               	retlw	13
   505     063E  340A               	retlw	10
   506     063F  3400               	retlw	0
   507     0640                     STR_2:
   508     0640  3443               	retlw	67	;'C'
   509     0641  3461               	retlw	97	;'a'
   510     0642  346C               	retlw	108	;'l'
   511     0643  3469               	retlw	105	;'i'
   512     0644  3462               	retlw	98	;'b'
   513     0645  3472               	retlw	114	;'r'
   514     0646  3461               	retlw	97	;'a'
   515     0647  3474               	retlw	116	;'t'
   516     0648  3469               	retlw	105	;'i'
   517     0649  346E               	retlw	110	;'n'
   518     064A  3467               	retlw	103	;'g'
   519     064B  342E               	retlw	46	;'.'
   520     064C  342E               	retlw	46	;'.'
   521     064D  342E               	retlw	46	;'.'
   522     064E  340D               	retlw	13
   523     064F  340A               	retlw	10
   524     0650  3400               	retlw	0
   525     0651                     STR_5:
   526     0651  3443               	retlw	67	;'C'
   527     0652  3475               	retlw	117	;'u'
   528     0653  3472               	retlw	114	;'r'
   529     0654  3472               	retlw	114	;'r'
   530     0655  3465               	retlw	101	;'e'
   531     0656  346E               	retlw	110	;'n'
   532     0657  3474               	retlw	116	;'t'
   533     0658  343A               	retlw	58	;':'
   534     0659  3420               	retlw	32	;' '
   535     065A  3400               	retlw	0
   536     065B                     STR_4:
   537     065B  3444               	retlw	68	;'D'
   538     065C  346F               	retlw	111	;'o'
   539     065D  346E               	retlw	110	;'n'
   540     065E  3465               	retlw	101	;'e'
   541     065F  342E               	retlw	46	;'.'
   542     0660  340D               	retlw	13
   543     0661  340A               	retlw	10
   544     0662  3400               	retlw	0
   545     0663                     STR_6:
   546     0663  3420               	retlw	32	;' '
   547     0664  3441               	retlw	65	;'A'
   548     0665  340D               	retlw	13
   549     0666  340A               	retlw	10
   550     0667  3400               	retlw	0
   551                           
   552                           	psect	cinit
   553     000D                     start_initialization:	
   554                           ; #config settings
   555                           
   556     000D                     __initialization:
   557                           
   558                           ; Initialize objects allocated to COMMON
   559     000D  118A  27FA  118A   	fcall	__pidataCOMMON	;fetch initializer
   560     0010  00FB               	movwf	__pdataCOMMON& (0+127)
   561                           
   562                           ; Clear objects allocated to BANK1
   563     0011  1683               	bsf	3,5	;RP0=1, select bank1
   564     0012  1303               	bcf	3,6	;RP1=0, select bank1
   565     0013  01C8               	clrf	__pbssBANK1& (0+127)
   566     0014  01C9               	clrf	(__pbssBANK1+1)& (0+127)
   567     0015  01CA               	clrf	(__pbssBANK1+2)& (0+127)
   568     0016  01CB               	clrf	(__pbssBANK1+3)& (0+127)
   569     0017  01CC               	clrf	(__pbssBANK1+4)& (0+127)
   570     0018  01CD               	clrf	(__pbssBANK1+5)& (0+127)
   571     0019  01CE               	clrf	(__pbssBANK1+6)& (0+127)
   572     001A  01CF               	clrf	(__pbssBANK1+7)& (0+127)
   573     001B  01D0               	clrf	(__pbssBANK1+8)& (0+127)
   574     001C  01D1               	clrf	(__pbssBANK1+9)& (0+127)
   575     001D  01D2               	clrf	(__pbssBANK1+10)& (0+127)
   576     001E  01D3               	clrf	(__pbssBANK1+11)& (0+127)
   577     001F  01D4               	clrf	(__pbssBANK1+12)& (0+127)
   578     0020                     end_of_initialization:	
   579                           ;End of C runtime variable initialization code
   580                           
   581     0020                     __end_of__initialization:
   582     0020  0183               	clrf	3
   583     0021  118A  2A83         	ljmp	_main	;jump to C main() function
   584                           
   585                           	psect	dataCOMMON
   586     007B                     __pdataCOMMON:
   587     007B                     _current_freq_mhz:
   588     007B                     	ds	1
   589                           
   590                           	psect	bssBANK1
   591     00C8                     __pbssBANK1:
   592     00C8                     _micros_counter:
   593     00C8                     	ds	4
   594     00CC                     _mySensor:
   595     00CC                     	ds	9
   596                           
   597                           	psect	cstackBANK1
   598     00A0                     __pcstackBANK1:
   599     00A0                     ACS712_ReadAC@start_time:
   600                           
   601                           ; 4 bytes @ 0x0
   602     00A0                     	ds	4
   603     00A4                     ACS712_ReadAC@zero:
   604                           
   605                           ; 4 bytes @ 0x4
   606     00A4                     	ds	4
   607     00A8                     ACS712_ReadAC@avg_sq:
   608                           
   609                           ; 4 bytes @ 0x8
   610     00A8                     	ds	4
   611     00AC                     ACS712_ReadAC@rms_adc:
   612                           
   613                           ; 4 bytes @ 0xC
   614     00AC                     	ds	4
   615     00B0                     ACS712_ReadAC@voltage_rms_mv:
   616                           
   617                           ; 4 bytes @ 0x10
   618     00B0                     	ds	4
   619     00B4                     ACS712_ReadAC@current_mA:
   620                           
   621                           ; 4 bytes @ 0x14
   622     00B4                     	ds	4
   623     00B8                     ACS712_ReadAC@accumulator:
   624                           
   625                           ; 4 bytes @ 0x18
   626     00B8                     	ds	4
   627     00BC                     ACS712_ReadAC@period_us:
   628                           
   629                           ; 4 bytes @ 0x1C
   630     00BC                     	ds	4
   631     00C0                     ACS712_ReadAC@count:
   632                           
   633                           ; 4 bytes @ 0x20
   634     00C0                     	ds	4
   635     00C4                     ACS712_ReadAC@sample:
   636                           
   637                           ; 4 bytes @ 0x24
   638     00C4                     	ds	4
   639                           
   640                           	psect	cstackCOMMON
   641     0070                     __pcstackCOMMON:
   642     0070                     ?_UART_Init:
   643     0070                     ?_ADC_Init:	
   644                           ; 1 bytes @ 0x0
   645                           
   646     0070                     ?_Time_Init:	
   647                           ; 1 bytes @ 0x0
   648                           
   649     0070                     ?_UART_Write:	
   650                           ; 1 bytes @ 0x0
   651                           
   652     0070                     ?_main:	
   653                           ; 1 bytes @ 0x0
   654                           
   655     0070                     ?_ISR:	
   656                           ; 1 bytes @ 0x0
   657                           
   658     0070                     ??_ISR:	
   659                           ; 1 bytes @ 0x0
   660                           
   661                           
   662                           ; 1 bytes @ 0x0
   663     0070                     	ds	2
   664     0072                     ?_ACS712_SetSensitivity:
   665     0072                     ?_ADC_Read:	
   666                           ; 1 bytes @ 0x2
   667                           
   668     0072                     ?___awdiv:	
   669                           ; 2 bytes @ 0x2
   670                           
   671     0072                     ?___awmod:	
   672                           ; 2 bytes @ 0x2
   673                           
   674     0072                     ?___lwdiv:	
   675                           ; 2 bytes @ 0x2
   676                           
   677     0072                     ?___lwmod:	
   678                           ; 2 bytes @ 0x2
   679                           
   680     0072                     ?_micros:	
   681                           ; 2 bytes @ 0x2
   682                           
   683     0072                     ?___lmul:	
   684                           ; 4 bytes @ 0x2
   685                           
   686     0072                     Time_Init@mhz:	
   687                           ; 4 bytes @ 0x2
   688                           
   689     0072                     UART_Write@data:	
   690                           ; 1 bytes @ 0x2
   691                           
   692     0072                     ACS712_SetSensitivity@sensor:	
   693                           ; 1 bytes @ 0x2
   694                           
   695     0072                     ___awdiv@divisor:	
   696                           ; 2 bytes @ 0x2
   697                           
   698     0072                     ___awmod@divisor:	
   699                           ; 2 bytes @ 0x2
   700                           
   701     0072                     ___lwdiv@divisor:	
   702                           ; 2 bytes @ 0x2
   703                           
   704     0072                     ___lwmod@divisor:	
   705                           ; 2 bytes @ 0x2
   706                           
   707     0072                     ___lmul@multiplier:	
   708                           ; 2 bytes @ 0x2
   709                           
   710     0072                     ??_UART_Init:	
   711                           ; 4 bytes @ 0x2
   712                           
   713     0072                     ??_ADC_Init:	
   714                           ; 1 bytes @ 0x2
   715                           
   716     0072                     ??_Time_Init:	
   717                           ; 1 bytes @ 0x2
   718                           
   719     0072                     ??_UART_Write:	
   720                           ; 1 bytes @ 0x2
   721                           
   722                           
   723                           ; 1 bytes @ 0x2
   724     0072                     	ds	1
   725     0073                     ?_UART_Write_Text:
   726     0073                     UART_Write_Text@text:	
   727                           ; 1 bytes @ 0x3
   728                           
   729                           
   730                           ; 2 bytes @ 0x3
   731     0073                     	ds	1
   732     0074                     ACS712_SetSensitivity@sens_mv_a:
   733     0074                     ___awdiv@dividend:	
   734                           ; 2 bytes @ 0x4
   735                           
   736     0074                     ___awmod@dividend:	
   737                           ; 2 bytes @ 0x4
   738                           
   739     0074                     ___lwdiv@dividend:	
   740                           ; 2 bytes @ 0x4
   741                           
   742     0074                     ___lwmod@dividend:	
   743                           ; 2 bytes @ 0x4
   744                           
   745     0074                     ??_ADC_Read:	
   746                           ; 2 bytes @ 0x4
   747                           
   748                           
   749                           ; 1 bytes @ 0x4
   750     0074                     	ds	1
   751     0075                     ADC_Read@channel:
   752     0075                     ??_UART_Write_Text:	
   753                           ; 1 bytes @ 0x5
   754                           
   755                           
   756                           ; 1 bytes @ 0x5
   757     0075                     	ds	1
   758     0076                     ___awdiv@counter:
   759     0076                     ___awmod@counter:	
   760                           ; 1 bytes @ 0x6
   761                           
   762     0076                     ___lwdiv@counter:	
   763                           ; 1 bytes @ 0x6
   764                           
   765     0076                     ___lwmod@counter:	
   766                           ; 1 bytes @ 0x6
   767                           
   768     0076                     ___lmul@multiplicand:	
   769                           ; 1 bytes @ 0x6
   770                           
   771     0076                     ??_micros:	
   772                           ; 4 bytes @ 0x6
   773                           
   774     0076                     ??_ACS712_SetSensitivity:	
   775                           ; 1 bytes @ 0x6
   776                           
   777     0076                     ??___awdiv:	
   778                           ; 1 bytes @ 0x6
   779                           
   780     0076                     ??___awmod:	
   781                           ; 1 bytes @ 0x6
   782                           
   783     0076                     ??___lwdiv:	
   784                           ; 1 bytes @ 0x6
   785                           
   786     0076                     ??___lwmod:	
   787                           ; 1 bytes @ 0x6
   788                           
   789                           
   790                           ; 1 bytes @ 0x6
   791     0076                     	ds	1
   792     0077                     ___awdiv@sign:
   793     0077                     ___awmod@sign:	
   794                           ; 1 bytes @ 0x7
   795                           
   796     0077                     ___lwdiv@quotient:	
   797                           ; 1 bytes @ 0x7
   798                           
   799                           
   800                           ; 2 bytes @ 0x7
   801     0077                     	ds	1
   802     0078                     UART_Write_Text@i:
   803     0078                     ___awdiv@quotient:	
   804                           ; 2 bytes @ 0x8
   805                           
   806                           
   807                           ; 2 bytes @ 0x8
   808     0078                     	ds	2
   809     007A                     ??___lmul:
   810                           
   811                           ; 1 bytes @ 0xA
   812     007A                     	ds	1
   813     007B                     ??_millis:
   814                           
   815                           	psect	cstackBANK0
   816     0020                     __pcstackBANK0:	
   817                           ; 1 bytes @ 0xB
   818                           
   819     0020                     ?_ACS712_Init:
   820     0020                     ?_IntToText:	
   821                           ; 1 bytes @ 0x0
   822                           
   823     0020                     IntToText@buf:	
   824                           ; 1 bytes @ 0x0
   825                           
   826     0020                     ACS712_Init@sensor:	
   827                           ; 1 bytes @ 0x0
   828                           
   829     0020                     micros@micros_now:	
   830                           ; 2 bytes @ 0x0
   831                           
   832     0020                     ___lmul@product:	
   833                           ; 4 bytes @ 0x0
   834                           
   835                           
   836                           ; 4 bytes @ 0x0
   837     0020                     	ds	1
   838     0021                     IntToText@n:
   839                           
   840                           ; 2 bytes @ 0x1
   841     0021                     	ds	1
   842     0022                     ACS712_Init@channel:
   843                           
   844                           ; 1 bytes @ 0x2
   845     0022                     	ds	1
   846     0023                     ACS712_Init@v_ref_mv:
   847     0023                     ??_IntToText:	
   848                           ; 2 bytes @ 0x3
   849                           
   850                           
   851                           ; 1 bytes @ 0x3
   852     0023                     	ds	1
   853     0024                     micros@tmr_snapshot:
   854                           
   855                           ; 1 bytes @ 0x4
   856     0024                     	ds	1
   857     0025                     ?___lldiv:
   858     0025                     ACS712_Init@adc_res:	
   859                           ; 4 bytes @ 0x5
   860                           
   861     0025                     IntToText@sign:	
   862                           ; 2 bytes @ 0x5
   863                           
   864     0025                     ___lldiv@divisor:	
   865                           ; 2 bytes @ 0x5
   866                           
   867                           
   868                           ; 4 bytes @ 0x5
   869     0025                     	ds	2
   870     0027                     IntToText@temp:
   871     0027                     ??_ACS712_Init:	
   872                           ; 1 bytes @ 0x7
   873                           
   874                           
   875                           ; 1 bytes @ 0x7
   876     0027                     	ds	1
   877     0028                     IntToText@start:
   878                           
   879                           ; 2 bytes @ 0x8
   880     0028                     	ds	1
   881     0029                     ___lldiv@dividend:
   882                           
   883                           ; 4 bytes @ 0x9
   884     0029                     	ds	1
   885     002A                     IntToText@end:
   886                           
   887                           ; 2 bytes @ 0xA
   888     002A                     	ds	2
   889     002C                     IntToText@i:
   890                           
   891                           ; 2 bytes @ 0xC
   892     002C                     	ds	1
   893     002D                     ??___lldiv:
   894                           
   895                           ; 1 bytes @ 0xD
   896     002D                     	ds	1
   897     002E                     ___lldiv@quotient:
   898                           
   899                           ; 4 bytes @ 0xE
   900     002E                     	ds	4
   901     0032                     ___lldiv@counter:
   902                           
   903                           ; 1 bytes @ 0x12
   904     0032                     	ds	1
   905     0033                     ?_ACS712_Calibrate:
   906     0033                     ?_millis:	
   907                           ; 1 bytes @ 0x13
   908                           
   909     0033                     ?_isqrt:	
   910                           ; 4 bytes @ 0x13
   911                           
   912     0033                     ACS712_Calibrate@sensor:	
   913                           ; 4 bytes @ 0x13
   914                           
   915     0033                     isqrt@n:	
   916                           ; 2 bytes @ 0x13
   917                           
   918                           
   919                           ; 4 bytes @ 0x13
   920     0033                     	ds	2
   921     0035                     ??_ACS712_Calibrate:
   922                           
   923                           ; 1 bytes @ 0x15
   924     0035                     	ds	2
   925     0037                     ??_isqrt:
   926                           
   927                           ; 1 bytes @ 0x17
   928     0037                     	ds	2
   929     0039                     ACS712_Calibrate@accumulator:
   930                           
   931                           ; 4 bytes @ 0x19
   932     0039                     	ds	2
   933     003B                     isqrt@y:
   934                           
   935                           ; 4 bytes @ 0x1B
   936     003B                     	ds	2
   937     003D                     ACS712_Calibrate@i:
   938                           
   939                           ; 2 bytes @ 0x1D
   940     003D                     	ds	2
   941     003F                     isqrt@x:
   942                           
   943                           ; 4 bytes @ 0x1F
   944     003F                     	ds	4
   945     0043                     ?_ACS712_ReadAC:
   946     0043                     ACS712_ReadAC@sensor:	
   947                           ; 2 bytes @ 0x23
   948                           
   949                           
   950                           ; 2 bytes @ 0x23
   951     0043                     	ds	2
   952     0045                     ACS712_ReadAC@frequency:
   953                           
   954                           ; 1 bytes @ 0x25
   955     0045                     	ds	1
   956     0046                     ??_ACS712_ReadAC:
   957                           
   958                           ; 1 bytes @ 0x26
   959     0046                     	ds	8
   960     004E                     ??_main:
   961                           
   962                           ; 1 bytes @ 0x2E
   963     004E                     	ds	4
   964     0052                     main@buffer:
   965                           
   966                           ; 10 bytes @ 0x32
   967     0052                     	ds	10
   968     005C                     main@amps_whole:
   969                           
   970                           ; 2 bytes @ 0x3C
   971     005C                     	ds	2
   972     005E                     main@previousMillis:
   973                           
   974                           ; 4 bytes @ 0x3E
   975     005E                     	ds	4
   976     0062                     main@sum_ma:
   977                           
   978                           ; 4 bytes @ 0x42
   979     0062                     	ds	4
   980     0066                     main@currentMillis:
   981                           
   982                           ; 4 bytes @ 0x46
   983     0066                     	ds	4
   984     006A                     main@i:
   985                           
   986                           ; 2 bytes @ 0x4A
   987     006A                     	ds	2
   988     006C                     main@amps_frac:
   989                           
   990                           ; 2 bytes @ 0x4C
   991     006C                     	ds	2
   992     006E                     main@ma_val:
   993                           
   994                           ; 2 bytes @ 0x4E
   995     006E                     	ds	2
   996                           
   997                           	psect	maintext
   998     0283                     __pmaintext:	
   999 ;;
  1000 ;;Main: autosize = 0, tempsize = 4, incstack = 0, save=0
  1001 ;;
  1002 ;; *************** function _main *****************
  1003 ;; Defined at:
  1004 ;;		line 64 in file "Test_AC.c"
  1005 ;; Parameters:    Size  Location     Type
  1006 ;;		None
  1007 ;; Auto vars:     Size  Location     Type
  1008 ;;  buffer         10   50[BANK0 ] unsigned char [10]
  1009 ;;  currentMilli    4   70[BANK0 ] unsigned long 
  1010 ;;  sum_ma          4   66[BANK0 ] unsigned long 
  1011 ;;  ma_val          2   78[BANK0 ] unsigned int 
  1012 ;;  amps_frac       2   76[BANK0 ] unsigned int 
  1013 ;;  i               2   74[BANK0 ] int 
  1014 ;;  amps_whole      2   60[BANK0 ] unsigned int 
  1015 ;;  previousMill    4   62[BANK0 ] unsigned long 
  1016 ;; Return value:  Size  Location     Type
  1017 ;;                  1    wreg      void 
  1018 ;; Registers used:
  1019 ;;		wreg, fsr0l, fsr0h, status,2, status,0, btemp+1, pclath, cstack
  1020 ;; Tracked objects:
  1021 ;;		On entry : B00/0
  1022 ;;		On exit  : 0/0
  1023 ;;		Unchanged: 0/0
  1024 ;; Data sizes:     COMMON   BANK0   BANK1   BANK3   BANK2
  1025 ;;      Params:         0       0       0       0       0
  1026 ;;      Locals:         0      30       0       0       0
  1027 ;;      Temps:          0       4       0       0       0
  1028 ;;      Totals:         0      34       0       0       0
  1029 ;;Total ram usage:       34 bytes
  1030 ;; Hardware stack levels required when called: 4
  1031 ;; This function calls:
  1032 ;;		_ACS712_Calibrate
  1033 ;;		_ACS712_Init
  1034 ;;		_ACS712_ReadAC
  1035 ;;		_ACS712_SetSensitivity
  1036 ;;		_ADC_Init
  1037 ;;		_IntToText
  1038 ;;		_Time_Init
  1039 ;;		_UART_Init
  1040 ;;		_UART_Write
  1041 ;;		_UART_Write_Text
  1042 ;;		___lldiv
  1043 ;;		___lwdiv
  1044 ;;		___lwmod
  1045 ;;		_millis
  1046 ;; This function is called by:
  1047 ;;		Startup code after reset
  1048 ;; This function uses a non-reentrant model
  1049 ;;
  1050                           
  1051     0283                     _main:	
  1052                           ;psect for function _main
  1053                           
  1054     0283                     l1987:	
  1055                           ;incstack = 0
  1056                           ; Regs used in _main: [wreg-fsr0h+status,2+status,0+btemp+1+pclath+cstack]
  1057                           
  1058                           
  1059                           ;Test_AC.c: 65:     OSCCON = 0x70;
  1060     0283  3070               	movlw	112
  1061     0284  1683               	bsf	3,5	;RP0=1, select bank1
  1062     0285  1303               	bcf	3,6	;RP1=0, select bank1
  1063     0286  008F               	movwf	15	;volatile
  1064                           
  1065                           ;Test_AC.c: 66:     ANSEL = 0b00000001;
  1066     0287  3001               	movlw	1
  1067     0288  009B               	movwf	27	;volatile
  1068                           
  1069                           ;Test_AC.c: 67:     TRISAbits.TRISA0 = 1;
  1070     0289  1405               	bsf	5,0	;volatile
  1071     028A                     l1989:
  1072                           
  1073                           ;Test_AC.c: 69:     UART_Init();
  1074     028A  158A  2609  118A   	fcall	_UART_Init
  1075                           
  1076                           ;Test_AC.c: 70:     ADC_Init();
  1077     028D  158A  2601  118A   	fcall	_ADC_Init
  1078     0290                     l1991:
  1079                           
  1080                           ;Test_AC.c: 71:     Time_Init(8);
  1081     0290  3008               	movlw	8
  1082     0291  158A  261B  118A   	fcall	_Time_Init
  1083     0294                     l1993:
  1084                           
  1085                           ;Test_AC.c: 73:     UART_Write_Text("ACS712 AC Integer Test\r\n");
  1086     0294  3005               	movlw	(low ((STR_1-__stringbase)| (0+32768)))& (0+255)
  1087     0295  00F3               	movwf	UART_Write_Text@text
  1088     0296  3080               	movlw	128
  1089     0297  00F4               	movwf	UART_Write_Text@text+1
  1090     0298  158A  26E7  118A   	fcall	_UART_Write_Text
  1091     029B                     l1995:
  1092                           
  1093                           ;Test_AC.c: 76:     ACS712_Init(&mySensor, 0, 5000, 1023);
  1094     029B  30CC               	movlw	low _mySensor
  1095     029C  1283               	bcf	3,5	;RP0=0, select bank0
  1096     029D  1303               	bcf	3,6	;RP1=0, select bank0
  1097     029E  00A0               	movwf	ACS712_Init@sensor
  1098     029F  3000               	movlw	high _mySensor
  1099     02A0  00A1               	movwf	ACS712_Init@sensor+1
  1100     02A1  01A2               	clrf	ACS712_Init@channel
  1101     02A2  3088               	movlw	136
  1102     02A3  00A3               	movwf	ACS712_Init@v_ref_mv
  1103     02A4  3013               	movlw	19
  1104     02A5  00A4               	movwf	ACS712_Init@v_ref_mv+1
  1105     02A6  30FF               	movlw	255
  1106     02A7  00A5               	movwf	ACS712_Init@adc_res
  1107     02A8  3003               	movlw	3
  1108     02A9  00A6               	movwf	ACS712_Init@adc_res+1
  1109     02AA  118A  2731  118A   	fcall	_ACS712_Init
  1110     02AD                     l1997:
  1111                           
  1112                           ;Test_AC.c: 77:     ACS712_SetSensitivity(&mySensor, 100);
  1113     02AD  30CC               	movlw	low _mySensor
  1114     02AE  00F2               	movwf	ACS712_SetSensitivity@sensor
  1115     02AF  3000               	movlw	high _mySensor
  1116     02B0  00F3               	movwf	ACS712_SetSensitivity@sensor+1
  1117     02B1  3064               	movlw	100
  1118     02B2  00F4               	movwf	ACS712_SetSensitivity@sens_mv_a
  1119     02B3  3000               	movlw	0
  1120     02B4  00F5               	movwf	ACS712_SetSensitivity@sens_mv_a+1
  1121     02B5  118A  27E7  118A   	fcall	_ACS712_SetSensitivity
  1122     02B8                     l1999:
  1123                           
  1124                           ;Test_AC.c: 79:     UART_Write_Text("Calibrating...\r\n");
  1125     02B8  3031               	movlw	(low ((STR_2-__stringbase)| (0+32768)))& (0+255)
  1126     02B9  00F3               	movwf	UART_Write_Text@text
  1127     02BA  3080               	movlw	128
  1128     02BB  00F4               	movwf	UART_Write_Text@text+1
  1129     02BC  158A  26E7  118A   	fcall	_UART_Write_Text
  1130     02BF                     l2001:
  1131                           
  1132                           ;Test_AC.c: 80:     ACS712_Calibrate(&mySensor);
  1133     02BF  30CC               	movlw	low _mySensor
  1134     02C0  1283               	bcf	3,5	;RP0=0, select bank0
  1135     02C1  1303               	bcf	3,6	;RP1=0, select bank0
  1136     02C2  00B3               	movwf	ACS712_Calibrate@sensor
  1137     02C3  3000               	movlw	high _mySensor
  1138     02C4  00B4               	movwf	ACS712_Calibrate@sensor+1
  1139     02C5  118A  257C  118A   	fcall	_ACS712_Calibrate
  1140     02C8                     l2003:
  1141                           
  1142                           ;Test_AC.c: 81:     unsigned long previousMillis = 0;
  1143     02C8  3000               	movlw	0
  1144     02C9  1283               	bcf	3,5	;RP0=0, select bank0
  1145     02CA  1303               	bcf	3,6	;RP1=0, select bank0
  1146     02CB  00E1               	movwf	main@previousMillis+3
  1147     02CC  3000               	movlw	0
  1148     02CD  00E0               	movwf	main@previousMillis+2
  1149     02CE  3000               	movlw	0
  1150     02CF  00DF               	movwf	main@previousMillis+1
  1151     02D0  3000               	movlw	0
  1152     02D1  00DE               	movwf	main@previousMillis
  1153     02D2                     l2005:
  1154                           
  1155                           ;Test_AC.c: 85:         unsigned long currentMillis = millis();
  1156     02D2  158A  2657  118A   	fcall	_millis
  1157     02D5  1283               	bcf	3,5	;RP0=0, select bank0
  1158     02D6  1303               	bcf	3,6	;RP1=0, select bank0
  1159     02D7  0836               	movf	?_millis+3,w
  1160     02D8  00E9               	movwf	main@currentMillis+3
  1161     02D9  0835               	movf	?_millis+2,w
  1162     02DA  00E8               	movwf	main@currentMillis+2
  1163     02DB  0834               	movf	?_millis+1,w
  1164     02DC  00E7               	movwf	main@currentMillis+1
  1165     02DD  0833               	movf	?_millis,w
  1166     02DE  00E6               	movwf	main@currentMillis
  1167     02DF                     l2007:
  1168                           
  1169                           ;Test_AC.c: 88:         if (currentMillis - previousMillis >= calibrationInterval) {
  1170     02DF  0866               	movf	main@currentMillis,w
  1171     02E0  00CE               	movwf	??_main
  1172     02E1  0867               	movf	main@currentMillis+1,w
  1173     02E2  00CF               	movwf	??_main+1
  1174     02E3  0868               	movf	main@currentMillis+2,w
  1175     02E4  00D0               	movwf	??_main+2
  1176     02E5  0869               	movf	main@currentMillis+3,w
  1177     02E6  00D1               	movwf	??_main+3
  1178     02E7  085E               	movf	main@previousMillis,w
  1179     02E8  02CE               	subwf	??_main,f
  1180     02E9  085F               	movf	main@previousMillis+1,w
  1181     02EA  1C03               	skipc
  1182     02EB  0F5F               	incfsz	main@previousMillis+1,w
  1183     02EC  2AEE               	goto	u2321
  1184     02ED  2AEF               	goto	u2322
  1185     02EE                     u2321:
  1186     02EE  02CF               	subwf	??_main+1,f
  1187     02EF                     u2322:
  1188     02EF  0860               	movf	main@previousMillis+2,w
  1189     02F0  1C03               	skipc
  1190     02F1  0F60               	incfsz	main@previousMillis+2,w
  1191     02F2  2AF4               	goto	u2323
  1192     02F3  2AF5               	goto	u2324
  1193     02F4                     u2323:
  1194     02F4  02D0               	subwf	??_main+2,f
  1195     02F5                     u2324:
  1196     02F5  0861               	movf	main@previousMillis+3,w
  1197     02F6  1C03               	skipc
  1198     02F7  0F61               	incfsz	main@previousMillis+3,w
  1199     02F8  2AFA               	goto	u2325
  1200     02F9  2AFB               	goto	u2326
  1201     02FA                     u2325:
  1202     02FA  02D1               	subwf	??_main+3,f
  1203     02FB                     u2326:
  1204     02FB  0851               	movf	??_main+3,w
  1205     02FC  1D03               	btfss	3,2
  1206     02FD  2B0D               	goto	u2330
  1207     02FE  0850               	movf	??_main+2,w
  1208     02FF  1D03               	btfss	3,2
  1209     0300  2B0D               	goto	u2330
  1210     0301  3027               	movlw	39
  1211     0302  024F               	subwf	??_main+1,w
  1212     0303  1D03               	skipz
  1213     0304  2B09               	goto	u2333
  1214     0305  3010               	movlw	16
  1215     0306  024E               	subwf	??_main,w
  1216     0307  1D03               	skipz
  1217     0308  2B09               	goto	u2333
  1218     0309                     u2333:
  1219     0309  1C03               	btfss	3,0
  1220     030A  2B0C               	goto	u2331
  1221     030B  2B0D               	goto	u2330
  1222     030C                     u2331:
  1223     030C  2B2E               	goto	l2017
  1224     030D                     u2330:
  1225     030D                     l2009:
  1226                           
  1227                           ;Test_AC.c: 89:             previousMillis = currentMillis;
  1228     030D  1283               	bcf	3,5	;RP0=0, select bank0
  1229     030E  1303               	bcf	3,6	;RP1=0, select bank0
  1230     030F  0869               	movf	main@currentMillis+3,w
  1231     0310  00E1               	movwf	main@previousMillis+3
  1232     0311  0868               	movf	main@currentMillis+2,w
  1233     0312  00E0               	movwf	main@previousMillis+2
  1234     0313  0867               	movf	main@currentMillis+1,w
  1235     0314  00DF               	movwf	main@previousMillis+1
  1236     0315  0866               	movf	main@currentMillis,w
  1237     0316  00DE               	movwf	main@previousMillis
  1238     0317                     l2011:
  1239                           
  1240                           ;Test_AC.c: 90:             UART_Write_Text("Recalibrating...\r\n");
  1241     0317  301E               	movlw	(low ((STR_3-__stringbase)| (0+32768)))& (0+255)
  1242     0318  00F3               	movwf	UART_Write_Text@text
  1243     0319  3080               	movlw	128
  1244     031A  00F4               	movwf	UART_Write_Text@text+1
  1245     031B  158A  26E7  118A   	fcall	_UART_Write_Text
  1246     031E                     l2013:
  1247                           
  1248                           ;Test_AC.c: 91:             ACS712_Calibrate(&mySensor);
  1249     031E  30CC               	movlw	low _mySensor
  1250     031F  1283               	bcf	3,5	;RP0=0, select bank0
  1251     0320  1303               	bcf	3,6	;RP1=0, select bank0
  1252     0321  00B3               	movwf	ACS712_Calibrate@sensor
  1253     0322  3000               	movlw	high _mySensor
  1254     0323  00B4               	movwf	ACS712_Calibrate@sensor+1
  1255     0324  118A  257C  118A   	fcall	_ACS712_Calibrate
  1256     0327                     l2015:
  1257                           
  1258                           ;Test_AC.c: 92:             UART_Write_Text("Done.\r\n");
  1259     0327  304C               	movlw	(low ((STR_4-__stringbase)| (0+32768)))& (0+255)
  1260     0328  00F3               	movwf	UART_Write_Text@text
  1261     0329  3080               	movlw	128
  1262     032A  00F4               	movwf	UART_Write_Text@text+1
  1263     032B  158A  26E7  118A   	fcall	_UART_Write_Text
  1264     032E                     l2017:
  1265                           
  1266                           ;Test_AC.c: 95:         unsigned long sum_ma = 0;
  1267     032E  3000               	movlw	0
  1268     032F  1283               	bcf	3,5	;RP0=0, select bank0
  1269     0330  1303               	bcf	3,6	;RP1=0, select bank0
  1270     0331  00E5               	movwf	main@sum_ma+3
  1271     0332  3000               	movlw	0
  1272     0333  00E4               	movwf	main@sum_ma+2
  1273     0334  3000               	movlw	0
  1274     0335  00E3               	movwf	main@sum_ma+1
  1275     0336  3000               	movlw	0
  1276     0337  00E2               	movwf	main@sum_ma
  1277     0338                     l2019:
  1278                           
  1279                           ;Test_AC.c: 96:         unsigned int ma_val;;Test_AC.c: 97:         int i;;Test_AC.c: 10
      +                          0:         for(i=0; i<20; i++) {
  1280     0338  01EA               	clrf	main@i
  1281     0339  01EB               	clrf	main@i+1
  1282     033A                     l2025:
  1283                           
  1284                           ;Test_AC.c: 101:             sum_ma += ACS712_ReadAC(&mySensor, 60);
  1285     033A  30CC               	movlw	low _mySensor
  1286     033B  1283               	bcf	3,5	;RP0=0, select bank0
  1287     033C  1303               	bcf	3,6	;RP1=0, select bank0
  1288     033D  00C3               	movwf	ACS712_ReadAC@sensor
  1289     033E  3000               	movlw	high _mySensor
  1290     033F  00C4               	movwf	ACS712_ReadAC@sensor+1
  1291     0340  303C               	movlw	60
  1292     0341  00C5               	movwf	ACS712_ReadAC@frequency
  1293     0342  118A  2023  118A   	fcall	_ACS712_ReadAC
  1294     0345  1283               	bcf	3,5	;RP0=0, select bank0
  1295     0346  1303               	bcf	3,6	;RP1=0, select bank0
  1296     0347  0843               	movf	?_ACS712_ReadAC,w
  1297     0348  00CE               	movwf	??_main
  1298     0349  0844               	movf	?_ACS712_ReadAC+1,w
  1299     034A  00CF               	movwf	??_main+1
  1300     034B  01D0               	clrf	??_main+2
  1301     034C  01D1               	clrf	??_main+3
  1302     034D  084E               	movf	??_main,w
  1303     034E  07E2               	addwf	main@sum_ma,f
  1304     034F  084F               	movf	??_main+1,w
  1305     0350  1103               	clrz
  1306     0351  1803               	skipnc
  1307     0352  3E01               	addlw	1
  1308     0353  1903               	skipnz
  1309     0354  2B56               	goto	u2341
  1310     0355  07E3               	addwf	main@sum_ma+1,f
  1311     0356                     u2341:
  1312     0356  0850               	movf	??_main+2,w
  1313     0357  1103               	clrz
  1314     0358  1803               	skipnc
  1315     0359  3E01               	addlw	1
  1316     035A  1903               	skipnz
  1317     035B  2B5D               	goto	u2342
  1318     035C  07E4               	addwf	main@sum_ma+2,f
  1319     035D                     u2342:
  1320     035D  0851               	movf	??_main+3,w
  1321     035E  1103               	clrz
  1322     035F  1803               	skipnc
  1323     0360  3E01               	addlw	1
  1324     0361  1903               	skipnz
  1325     0362  2B64               	goto	u2343
  1326     0363  07E5               	addwf	main@sum_ma+3,f
  1327     0364                     u2343:
  1328     0364                     l2027:
  1329                           
  1330                           ;Test_AC.c: 102:         }
  1331     0364  3001               	movlw	1
  1332     0365  07EA               	addwf	main@i,f
  1333     0366  1803               	skipnc
  1334     0367  0AEB               	incf	main@i+1,f
  1335     0368  3000               	movlw	0
  1336     0369  07EB               	addwf	main@i+1,f
  1337     036A                     l2029:
  1338     036A  086B               	movf	main@i+1,w
  1339     036B  3A80               	xorlw	128
  1340     036C  00FF               	movwf	btemp+1
  1341     036D  3080               	movlw	128
  1342     036E  027F               	subwf	btemp+1,w
  1343     036F  1D03               	skipz
  1344     0370  2B73               	goto	u2355
  1345     0371  3014               	movlw	20
  1346     0372  026A               	subwf	main@i,w
  1347     0373                     u2355:
  1348     0373  1C03               	skipc
  1349     0374  2B76               	goto	u2351
  1350     0375  2B77               	goto	u2350
  1351     0376                     u2351:
  1352     0376  2B3A               	goto	l2025
  1353     0377                     u2350:
  1354     0377                     l2031:
  1355                           
  1356                           ;Test_AC.c: 104:         ma_val = (unsigned int)(sum_ma / 20);
  1357     0377  3000               	movlw	0
  1358     0378  1283               	bcf	3,5	;RP0=0, select bank0
  1359     0379  1303               	bcf	3,6	;RP1=0, select bank0
  1360     037A  00A8               	movwf	___lldiv@divisor+3
  1361     037B  3000               	movlw	0
  1362     037C  00A7               	movwf	___lldiv@divisor+2
  1363     037D  3000               	movlw	0
  1364     037E  00A6               	movwf	___lldiv@divisor+1
  1365     037F  3014               	movlw	20
  1366     0380  00A5               	movwf	___lldiv@divisor
  1367     0381  0865               	movf	main@sum_ma+3,w
  1368     0382  00AC               	movwf	___lldiv@dividend+3
  1369     0383  0864               	movf	main@sum_ma+2,w
  1370     0384  00AB               	movwf	___lldiv@dividend+2
  1371     0385  0863               	movf	main@sum_ma+1,w
  1372     0386  00AA               	movwf	___lldiv@dividend+1
  1373     0387  0862               	movf	main@sum_ma,w
  1374     0388  00A9               	movwf	___lldiv@dividend
  1375     0389  118A  2668  118A   	fcall	___lldiv
  1376     038C  1283               	bcf	3,5	;RP0=0, select bank0
  1377     038D  1303               	bcf	3,6	;RP1=0, select bank0
  1378     038E  0826               	movf	?___lldiv+1,w
  1379     038F  00EF               	movwf	main@ma_val+1
  1380     0390  0825               	movf	?___lldiv,w
  1381     0391  00EE               	movwf	main@ma_val
  1382     0392                     l2033:
  1383                           
  1384                           ;Test_AC.c: 107:         if (ma_val < 80) ma_val = 0;
  1385     0392  3000               	movlw	0
  1386     0393  026F               	subwf	main@ma_val+1,w
  1387     0394  3050               	movlw	80
  1388     0395  1903               	skipnz
  1389     0396  026E               	subwf	main@ma_val,w
  1390     0397  1803               	skipnc
  1391     0398  2B9A               	goto	u2361
  1392     0399  2B9B               	goto	u2360
  1393     039A                     u2361:
  1394     039A  2B9D               	goto	l2037
  1395     039B                     u2360:
  1396     039B                     l2035:
  1397     039B  01EE               	clrf	main@ma_val
  1398     039C  01EF               	clrf	main@ma_val+1
  1399     039D                     l2037:
  1400                           
  1401                           ;Test_AC.c: 111:         unsigned int amps_whole = ma_val / 1000;
  1402     039D  30E8               	movlw	232
  1403     039E  00F2               	movwf	___lwdiv@divisor
  1404     039F  3003               	movlw	3
  1405     03A0  00F3               	movwf	___lwdiv@divisor+1
  1406     03A1  086F               	movf	main@ma_val+1,w
  1407     03A2  00F5               	movwf	___lwdiv@dividend+1
  1408     03A3  086E               	movf	main@ma_val,w
  1409     03A4  00F4               	movwf	___lwdiv@dividend
  1410     03A5  158A  2723  118A   	fcall	___lwdiv
  1411     03A8  0873               	movf	?___lwdiv+1,w
  1412     03A9  1283               	bcf	3,5	;RP0=0, select bank0
  1413     03AA  1303               	bcf	3,6	;RP1=0, select bank0
  1414     03AB  00DD               	movwf	main@amps_whole+1
  1415     03AC  0872               	movf	?___lwdiv,w
  1416     03AD  00DC               	movwf	main@amps_whole
  1417     03AE                     l2039:
  1418                           
  1419                           ;Test_AC.c: 112:         unsigned int amps_frac = ma_val % 1000;
  1420     03AE  30E8               	movlw	232
  1421     03AF  00F2               	movwf	___lwmod@divisor
  1422     03B0  3003               	movlw	3
  1423     03B1  00F3               	movwf	___lwmod@divisor+1
  1424     03B2  086F               	movf	main@ma_val+1,w
  1425     03B3  00F5               	movwf	___lwmod@dividend+1
  1426     03B4  086E               	movf	main@ma_val,w
  1427     03B5  00F4               	movwf	___lwmod@dividend
  1428     03B6  158A  26AF  118A   	fcall	___lwmod
  1429     03B9  0873               	movf	?___lwmod+1,w
  1430     03BA  1283               	bcf	3,5	;RP0=0, select bank0
  1431     03BB  1303               	bcf	3,6	;RP1=0, select bank0
  1432     03BC  00ED               	movwf	main@amps_frac+1
  1433     03BD  0872               	movf	?___lwmod,w
  1434     03BE  00EC               	movwf	main@amps_frac
  1435     03BF                     l2041:
  1436                           
  1437                           ;Test_AC.c: 113:         char buffer[10];;Test_AC.c: 115:         UART_Write_Text("Curre
      +                          nt: ");
  1438     03BF  3042               	movlw	(low ((STR_5-__stringbase)| (0+32768)))& (0+255)
  1439     03C0  00F3               	movwf	UART_Write_Text@text
  1440     03C1  3080               	movlw	128
  1441     03C2  00F4               	movwf	UART_Write_Text@text+1
  1442     03C3  158A  26E7  118A   	fcall	_UART_Write_Text
  1443     03C6                     l2043:
  1444                           
  1445                           ;Test_AC.c: 118:         IntToText(buffer, amps_whole);
  1446     03C6  3052               	movlw	(low (main@buffer| 0))& (0+255)
  1447     03C7  1283               	bcf	3,5	;RP0=0, select bank0
  1448     03C8  1303               	bcf	3,6	;RP1=0, select bank0
  1449     03C9  00A0               	movwf	IntToText@buf
  1450     03CA  085D               	movf	main@amps_whole+1,w
  1451     03CB  00A2               	movwf	IntToText@n+1
  1452     03CC  085C               	movf	main@amps_whole,w
  1453     03CD  00A1               	movwf	IntToText@n
  1454     03CE  118A  2425  118A   	fcall	_IntToText
  1455     03D1                     l2045:
  1456                           
  1457                           ;Test_AC.c: 119:         UART_Write_Text(buffer);
  1458     03D1  3052               	movlw	(low (main@buffer| 0))& (0+255)
  1459     03D2  00F3               	movwf	UART_Write_Text@text
  1460     03D3  3000               	movlw	0
  1461     03D4  00F4               	movwf	UART_Write_Text@text+1
  1462     03D5  158A  26E7  118A   	fcall	_UART_Write_Text
  1463     03D8                     l2047:
  1464                           
  1465                           ;Test_AC.c: 121:         UART_Write('.');
  1466     03D8  302E               	movlw	46
  1467     03D9  118A  25EF  118A   	fcall	_UART_Write
  1468     03DC                     l2049:
  1469                           
  1470                           ;Test_AC.c: 124:         if (amps_frac < 100) UART_Write('0');
  1471     03DC  3000               	movlw	0
  1472     03DD  1283               	bcf	3,5	;RP0=0, select bank0
  1473     03DE  1303               	bcf	3,6	;RP1=0, select bank0
  1474     03DF  026D               	subwf	main@amps_frac+1,w
  1475     03E0  3064               	movlw	100
  1476     03E1  1903               	skipnz
  1477     03E2  026C               	subwf	main@amps_frac,w
  1478     03E3  1803               	skipnc
  1479     03E4  2BE6               	goto	u2371
  1480     03E5  2BE7               	goto	u2370
  1481     03E6                     u2371:
  1482     03E6  2BEB               	goto	l2053
  1483     03E7                     u2370:
  1484     03E7                     l2051:
  1485     03E7  3030               	movlw	48
  1486     03E8  118A  25EF  118A   	fcall	_UART_Write
  1487     03EB                     l2053:
  1488                           
  1489                           ;Test_AC.c: 125:         if (amps_frac < 10) UART_Write('0');
  1490     03EB  3000               	movlw	0
  1491     03EC  1283               	bcf	3,5	;RP0=0, select bank0
  1492     03ED  1303               	bcf	3,6	;RP1=0, select bank0
  1493     03EE  026D               	subwf	main@amps_frac+1,w
  1494     03EF  300A               	movlw	10
  1495     03F0  1903               	skipnz
  1496     03F1  026C               	subwf	main@amps_frac,w
  1497     03F2  1803               	skipnc
  1498     03F3  2BF5               	goto	u2381
  1499     03F4  2BF6               	goto	u2380
  1500     03F5                     u2381:
  1501     03F5  2BFA               	goto	l2057
  1502     03F6                     u2380:
  1503     03F6                     l2055:
  1504     03F6  3030               	movlw	48
  1505     03F7  118A  25EF  118A   	fcall	_UART_Write
  1506     03FA                     l2057:
  1507                           
  1508                           ;Test_AC.c: 127:         IntToText(buffer, amps_frac);
  1509     03FA  3052               	movlw	(low (main@buffer| 0))& (0+255)
  1510     03FB  1283               	bcf	3,5	;RP0=0, select bank0
  1511     03FC  1303               	bcf	3,6	;RP1=0, select bank0
  1512     03FD  00A0               	movwf	IntToText@buf
  1513     03FE  086D               	movf	main@amps_frac+1,w
  1514     03FF  00A2               	movwf	IntToText@n+1
  1515     0400  086C               	movf	main@amps_frac,w
  1516     0401  00A1               	movwf	IntToText@n
  1517     0402  118A  2425  118A   	fcall	_IntToText
  1518     0405                     l2059:
  1519                           
  1520                           ;Test_AC.c: 128:         UART_Write_Text(buffer);
  1521     0405  3052               	movlw	(low (main@buffer| 0))& (0+255)
  1522     0406  00F3               	movwf	UART_Write_Text@text
  1523     0407  3000               	movlw	0
  1524     0408  00F4               	movwf	UART_Write_Text@text+1
  1525     0409  158A  26E7  118A   	fcall	_UART_Write_Text
  1526     040C                     l2061:
  1527                           
  1528                           ;Test_AC.c: 130:         UART_Write_Text(" A\r\n");
  1529     040C  3054               	movlw	(low ((STR_6-__stringbase)| (0+32768)))& (0+255)
  1530     040D  00F3               	movwf	UART_Write_Text@text
  1531     040E  3080               	movlw	128
  1532     040F  00F4               	movwf	UART_Write_Text@text+1
  1533     0410  158A  26E7  118A   	fcall	_UART_Write_Text
  1534     0413                     l2063:
  1535                           
  1536                           ;Test_AC.c: 132:         _delay((unsigned long)((100)*(8000000/4000.0)));
  1537     0413  3002               	movlw	2
  1538     0414  1283               	bcf	3,5	;RP0=0, select bank0
  1539     0415  1303               	bcf	3,6	;RP1=0, select bank0
  1540     0416  00D0               	movwf	??_main+2
  1541     0417  3004               	movlw	4
  1542     0418  00CF               	movwf	??_main+1
  1543     0419  30B9               	movlw	185
  1544     041A  00CE               	movwf	??_main
  1545     041B                     u2397:
  1546     041B  0BCE               	decfsz	??_main,f
  1547     041C  2C1B               	goto	u2397
  1548     041D  0BCF               	decfsz	??_main+1,f
  1549     041E  2C1B               	goto	u2397
  1550     041F  0BD0               	decfsz	??_main+2,f
  1551     0420  2C1B               	goto	u2397
  1552     0421  2C22               	nop2
  1553     0422  2AD2               	goto	l2005
  1554     0423  118A  280B         	ljmp	start
  1555     0425                     __end_of_main:
  1556                           
  1557                           	psect	text1
  1558     0E57                     __ptext1:	
  1559 ;; *************** function _millis *****************
  1560 ;; Defined at:
  1561 ;;		line 59 in file "Timer_lib.c"
  1562 ;; Parameters:    Size  Location     Type
  1563 ;;		None
  1564 ;; Auto vars:     Size  Location     Type
  1565 ;;		None
  1566 ;; Return value:  Size  Location     Type
  1567 ;;                  4   19[BANK0 ] unsigned long 
  1568 ;; Registers used:
  1569 ;;		wreg, status,2, status,0, pclath, cstack
  1570 ;; Tracked objects:
  1571 ;;		On entry : 0/0
  1572 ;;		On exit  : 0/0
  1573 ;;		Unchanged: 0/0
  1574 ;; Data sizes:     COMMON   BANK0   BANK1   BANK3   BANK2
  1575 ;;      Params:         0       4       0       0       0
  1576 ;;      Locals:         0       0       0       0       0
  1577 ;;      Temps:          0       0       0       0       0
  1578 ;;      Totals:         0       4       0       0       0
  1579 ;;Total ram usage:        4 bytes
  1580 ;; Hardware stack levels used: 1
  1581 ;; Hardware stack levels required when called: 2
  1582 ;; This function calls:
  1583 ;;		___lldiv
  1584 ;;		_micros
  1585 ;; This function is called by:
  1586 ;;		_main
  1587 ;; This function uses a non-reentrant model
  1588 ;;
  1589                           
  1590     0E57                     _millis:	
  1591                           ;psect for function _millis
  1592                           
  1593     0E57                     l1935:	
  1594                           ;incstack = 0
  1595                           ; Regs used in _millis: [wreg+status,2+status,0+pclath+cstack]
  1596                           
  1597                           
  1598                           ;Timer_lib.c: 60:     return micros() / 1000;
  1599     0E57  3000               	movlw	0
  1600     0E58  1283               	bcf	3,5	;RP0=0, select bank0
  1601     0E59  1303               	bcf	3,6	;RP1=0, select bank0
  1602     0E5A  00A8               	movwf	___lldiv@divisor+3
  1603     0E5B  3000               	movlw	0
  1604     0E5C  00A7               	movwf	___lldiv@divisor+2
  1605     0E5D  3003               	movlw	3
  1606     0E5E  00A6               	movwf	___lldiv@divisor+1
  1607     0E5F  30E8               	movlw	232
  1608     0E60  00A5               	movwf	___lldiv@divisor
  1609     0E61  158A  27B1  158A   	fcall	_micros
  1610     0E64  0875               	movf	?_micros+3,w
  1611     0E65  1283               	bcf	3,5	;RP0=0, select bank0
  1612     0E66  1303               	bcf	3,6	;RP1=0, select bank0
  1613     0E67  00AC               	movwf	___lldiv@dividend+3
  1614     0E68  0874               	movf	?_micros+2,w
  1615     0E69  00AB               	movwf	___lldiv@dividend+2
  1616     0E6A  0873               	movf	?_micros+1,w
  1617     0E6B  00AA               	movwf	___lldiv@dividend+1
  1618     0E6C  0872               	movf	?_micros,w
  1619     0E6D  00A9               	movwf	___lldiv@dividend
  1620     0E6E  118A  2668  158A   	fcall	___lldiv
  1621     0E71  1283               	bcf	3,5	;RP0=0, select bank0
  1622     0E72  1303               	bcf	3,6	;RP1=0, select bank0
  1623     0E73  0828               	movf	?___lldiv+3,w
  1624     0E74  00B6               	movwf	?_millis+3
  1625     0E75  0827               	movf	?___lldiv+2,w
  1626     0E76  00B5               	movwf	?_millis+2
  1627     0E77  0826               	movf	?___lldiv+1,w
  1628     0E78  00B4               	movwf	?_millis+1
  1629     0E79  0825               	movf	?___lldiv,w
  1630     0E7A  00B3               	movwf	?_millis
  1631     0E7B                     l210:
  1632     0E7B  0008               	return
  1633     0E7C                     __end_of_millis:
  1634                           
  1635                           	psect	text2
  1636     0EAF                     __ptext2:	
  1637 ;; *************** function ___lwmod *****************
  1638 ;; Defined at:
  1639 ;;		line 5 in file "C:\Program Files\Microchip\xc8\v3.00\pic\sources\c99\common\lwmod.c"
  1640 ;; Parameters:    Size  Location     Type
  1641 ;;  divisor         2    2[COMMON] unsigned int 
  1642 ;;  dividend        2    4[COMMON] unsigned int 
  1643 ;; Auto vars:     Size  Location     Type
  1644 ;;  counter         1    6[COMMON] unsigned char 
  1645 ;; Return value:  Size  Location     Type
  1646 ;;                  2    2[COMMON] unsigned int 
  1647 ;; Registers used:
  1648 ;;		wreg, status,2, status,0
  1649 ;; Tracked objects:
  1650 ;;		On entry : 0/0
  1651 ;;		On exit  : 0/0
  1652 ;;		Unchanged: 0/0
  1653 ;; Data sizes:     COMMON   BANK0   BANK1   BANK3   BANK2
  1654 ;;      Params:         4       0       0       0       0
  1655 ;;      Locals:         1       0       0       0       0
  1656 ;;      Temps:          0       0       0       0       0
  1657 ;;      Totals:         5       0       0       0       0
  1658 ;;Total ram usage:        5 bytes
  1659 ;; Hardware stack levels used: 1
  1660 ;; Hardware stack levels required when called: 1
  1661 ;; This function calls:
  1662 ;;		Nothing
  1663 ;; This function is called by:
  1664 ;;		_main
  1665 ;; This function uses a non-reentrant model
  1666 ;;
  1667                           
  1668     0EAF                     ___lwmod:	
  1669                           ;psect for function ___lwmod
  1670                           
  1671     0EAF                     l1965:	
  1672                           ;incstack = 0
  1673                           ; Regs used in ___lwmod: [wreg+status,2+status,0]
  1674                           
  1675     0EAF  0872               	movf	___lwmod@divisor,w
  1676     0EB0  0473               	iorwf	___lwmod@divisor+1,w
  1677     0EB1  1903               	btfsc	3,2
  1678     0EB2  2EB4               	goto	u2261
  1679     0EB3  2EB5               	goto	u2260
  1680     0EB4                     u2261:
  1681     0EB4  2EE2               	goto	l1983
  1682     0EB5                     u2260:
  1683     0EB5                     l1967:
  1684     0EB5  3001               	movlw	1
  1685     0EB6  00F6               	movwf	___lwmod@counter
  1686     0EB7  2EC1               	goto	l1973
  1687     0EB8                     l1969:
  1688     0EB8  3001               	movlw	1
  1689     0EB9                     u2275:
  1690     0EB9  1003               	clrc
  1691     0EBA  0DF2               	rlf	___lwmod@divisor,f
  1692     0EBB  0DF3               	rlf	___lwmod@divisor+1,f
  1693     0EBC  3EFF               	addlw	-1
  1694     0EBD  1D03               	skipz
  1695     0EBE  2EB9               	goto	u2275
  1696     0EBF                     l1971:
  1697     0EBF  3001               	movlw	1
  1698     0EC0  07F6               	addwf	___lwmod@counter,f
  1699     0EC1                     l1973:
  1700     0EC1  1FF3               	btfss	___lwmod@divisor+1,7
  1701     0EC2  2EC4               	goto	u2281
  1702     0EC3  2EC5               	goto	u2280
  1703     0EC4                     u2281:
  1704     0EC4  2EB8               	goto	l1969
  1705     0EC5                     u2280:
  1706     0EC5                     l1975:
  1707     0EC5  0873               	movf	___lwmod@divisor+1,w
  1708     0EC6  0275               	subwf	___lwmod@dividend+1,w
  1709     0EC7  1D03               	skipz
  1710     0EC8  2ECB               	goto	u2295
  1711     0EC9  0872               	movf	___lwmod@divisor,w
  1712     0ECA  0274               	subwf	___lwmod@dividend,w
  1713     0ECB                     u2295:
  1714     0ECB  1C03               	skipc
  1715     0ECC  2ECE               	goto	u2291
  1716     0ECD  2ECF               	goto	u2290
  1717     0ECE                     u2291:
  1718     0ECE  2ED5               	goto	l1979
  1719     0ECF                     u2290:
  1720     0ECF                     l1977:
  1721     0ECF  0872               	movf	___lwmod@divisor,w
  1722     0ED0  02F4               	subwf	___lwmod@dividend,f
  1723     0ED1  0873               	movf	___lwmod@divisor+1,w
  1724     0ED2  1C03               	skipc
  1725     0ED3  03F5               	decf	___lwmod@dividend+1,f
  1726     0ED4  02F5               	subwf	___lwmod@dividend+1,f
  1727     0ED5                     l1979:
  1728     0ED5  3001               	movlw	1
  1729     0ED6                     u2305:
  1730     0ED6  1003               	clrc
  1731     0ED7  0CF3               	rrf	___lwmod@divisor+1,f
  1732     0ED8  0CF2               	rrf	___lwmod@divisor,f
  1733     0ED9  3EFF               	addlw	-1
  1734     0EDA  1D03               	skipz
  1735     0EDB  2ED6               	goto	u2305
  1736     0EDC                     l1981:
  1737     0EDC  3001               	movlw	1
  1738     0EDD  02F6               	subwf	___lwmod@counter,f
  1739     0EDE  1D03               	btfss	3,2
  1740     0EDF  2EE1               	goto	u2311
  1741     0EE0  2EE2               	goto	u2310
  1742     0EE1                     u2311:
  1743     0EE1  2EC5               	goto	l1975
  1744     0EE2                     u2310:
  1745     0EE2                     l1983:
  1746     0EE2  0875               	movf	___lwmod@dividend+1,w
  1747     0EE3  00F3               	movwf	?___lwmod+1
  1748     0EE4  0874               	movf	___lwmod@dividend,w
  1749     0EE5  00F2               	movwf	?___lwmod
  1750     0EE6                     l571:
  1751     0EE6  0008               	return
  1752     0EE7                     __end_of___lwmod:
  1753                           
  1754                           	psect	text3
  1755     0F23                     __ptext3:	
  1756 ;; *************** function ___lwdiv *****************
  1757 ;; Defined at:
  1758 ;;		line 5 in file "C:\Program Files\Microchip\xc8\v3.00\pic\sources\c99\common\lwdiv.c"
  1759 ;; Parameters:    Size  Location     Type
  1760 ;;  divisor         2    2[COMMON] unsigned int 
  1761 ;;  dividend        2    4[COMMON] unsigned int 
  1762 ;; Auto vars:     Size  Location     Type
  1763 ;;  quotient        2    7[COMMON] unsigned int 
  1764 ;;  counter         1    6[COMMON] unsigned char 
  1765 ;; Return value:  Size  Location     Type
  1766 ;;                  2    2[COMMON] unsigned int 
  1767 ;; Registers used:
  1768 ;;		wreg, status,2, status,0
  1769 ;; Tracked objects:
  1770 ;;		On entry : 0/0
  1771 ;;		On exit  : 0/0
  1772 ;;		Unchanged: 0/0
  1773 ;; Data sizes:     COMMON   BANK0   BANK1   BANK3   BANK2
  1774 ;;      Params:         4       0       0       0       0
  1775 ;;      Locals:         3       0       0       0       0
  1776 ;;      Temps:          0       0       0       0       0
  1777 ;;      Totals:         7       0       0       0       0
  1778 ;;Total ram usage:        7 bytes
  1779 ;; Hardware stack levels used: 1
  1780 ;; Hardware stack levels required when called: 1
  1781 ;; This function calls:
  1782 ;;		Nothing
  1783 ;; This function is called by:
  1784 ;;		_main
  1785 ;; This function uses a non-reentrant model
  1786 ;;
  1787                           
  1788     0F23                     ___lwdiv:	
  1789                           ;psect for function ___lwdiv
  1790                           
  1791     0F23                     l1939:	
  1792                           ;incstack = 0
  1793                           ; Regs used in ___lwdiv: [wreg+status,2+status,0]
  1794                           
  1795     0F23  01F7               	clrf	___lwdiv@quotient
  1796     0F24  01F8               	clrf	___lwdiv@quotient+1
  1797     0F25                     l1941:
  1798     0F25  0872               	movf	___lwdiv@divisor,w
  1799     0F26  0473               	iorwf	___lwdiv@divisor+1,w
  1800     0F27  1903               	btfsc	3,2
  1801     0F28  2F2A               	goto	u2191
  1802     0F29  2F2B               	goto	u2190
  1803     0F2A                     u2191:
  1804     0F2A  2F60               	goto	l1961
  1805     0F2B                     u2190:
  1806     0F2B                     l1943:
  1807     0F2B  3001               	movlw	1
  1808     0F2C  00F6               	movwf	___lwdiv@counter
  1809     0F2D  2F37               	goto	l1949
  1810     0F2E                     l1945:
  1811     0F2E  3001               	movlw	1
  1812     0F2F                     u2205:
  1813     0F2F  1003               	clrc
  1814     0F30  0DF2               	rlf	___lwdiv@divisor,f
  1815     0F31  0DF3               	rlf	___lwdiv@divisor+1,f
  1816     0F32  3EFF               	addlw	-1
  1817     0F33  1D03               	skipz
  1818     0F34  2F2F               	goto	u2205
  1819     0F35                     l1947:
  1820     0F35  3001               	movlw	1
  1821     0F36  07F6               	addwf	___lwdiv@counter,f
  1822     0F37                     l1949:
  1823     0F37  1FF3               	btfss	___lwdiv@divisor+1,7
  1824     0F38  2F3A               	goto	u2211
  1825     0F39  2F3B               	goto	u2210
  1826     0F3A                     u2211:
  1827     0F3A  2F2E               	goto	l1945
  1828     0F3B                     u2210:
  1829     0F3B                     l1951:
  1830     0F3B  3001               	movlw	1
  1831     0F3C                     u2225:
  1832     0F3C  1003               	clrc
  1833     0F3D  0DF7               	rlf	___lwdiv@quotient,f
  1834     0F3E  0DF8               	rlf	___lwdiv@quotient+1,f
  1835     0F3F  3EFF               	addlw	-1
  1836     0F40  1D03               	skipz
  1837     0F41  2F3C               	goto	u2225
  1838     0F42  0873               	movf	___lwdiv@divisor+1,w
  1839     0F43  0275               	subwf	___lwdiv@dividend+1,w
  1840     0F44  1D03               	skipz
  1841     0F45  2F48               	goto	u2235
  1842     0F46  0872               	movf	___lwdiv@divisor,w
  1843     0F47  0274               	subwf	___lwdiv@dividend,w
  1844     0F48                     u2235:
  1845     0F48  1C03               	skipc
  1846     0F49  2F4B               	goto	u2231
  1847     0F4A  2F4C               	goto	u2230
  1848     0F4B                     u2231:
  1849     0F4B  2F53               	goto	l1957
  1850     0F4C                     u2230:
  1851     0F4C                     l1953:
  1852     0F4C  0872               	movf	___lwdiv@divisor,w
  1853     0F4D  02F4               	subwf	___lwdiv@dividend,f
  1854     0F4E  0873               	movf	___lwdiv@divisor+1,w
  1855     0F4F  1C03               	skipc
  1856     0F50  03F5               	decf	___lwdiv@dividend+1,f
  1857     0F51  02F5               	subwf	___lwdiv@dividend+1,f
  1858     0F52                     l1955:
  1859     0F52  1477               	bsf	___lwdiv@quotient,0
  1860     0F53                     l1957:
  1861     0F53  3001               	movlw	1
  1862     0F54                     u2245:
  1863     0F54  1003               	clrc
  1864     0F55  0CF3               	rrf	___lwdiv@divisor+1,f
  1865     0F56  0CF2               	rrf	___lwdiv@divisor,f
  1866     0F57  3EFF               	addlw	-1
  1867     0F58  1D03               	skipz
  1868     0F59  2F54               	goto	u2245
  1869     0F5A                     l1959:
  1870     0F5A  3001               	movlw	1
  1871     0F5B  02F6               	subwf	___lwdiv@counter,f
  1872     0F5C  1D03               	btfss	3,2
  1873     0F5D  2F5F               	goto	u2251
  1874     0F5E  2F60               	goto	u2250
  1875     0F5F                     u2251:
  1876     0F5F  2F3B               	goto	l1951
  1877     0F60                     u2250:
  1878     0F60                     l1961:
  1879     0F60  0878               	movf	___lwdiv@quotient+1,w
  1880     0F61  00F3               	movwf	?___lwdiv+1
  1881     0F62  0877               	movf	___lwdiv@quotient,w
  1882     0F63  00F2               	movwf	?___lwdiv
  1883     0F64                     l561:
  1884     0F64  0008               	return
  1885     0F65                     __end_of___lwdiv:
  1886                           
  1887                           	psect	text4
  1888     0EE7                     __ptext4:	
  1889 ;; *************** function _UART_Write_Text *****************
  1890 ;; Defined at:
  1891 ;;		line 44 in file "UART_Lib.c"
  1892 ;; Parameters:    Size  Location     Type
  1893 ;;  text            2    3[COMMON] PTR unsigned char 
  1894 ;;		 -> STR_6(5), main@buffer(10), STR_5(10), STR_4(8), 
  1895 ;;		 -> STR_3(19), STR_2(17), STR_1(25), 
  1896 ;; Auto vars:     Size  Location     Type
  1897 ;;  i               2    8[COMMON] int 
  1898 ;; Return value:  Size  Location     Type
  1899 ;;                  1    wreg      void 
  1900 ;; Registers used:
  1901 ;;		wreg, fsr0l, fsr0h, status,2, status,0, btemp+1, pclath, cstack
  1902 ;; Tracked objects:
  1903 ;;		On entry : 0/0
  1904 ;;		On exit  : 0/0
  1905 ;;		Unchanged: 0/0
  1906 ;; Data sizes:     COMMON   BANK0   BANK1   BANK3   BANK2
  1907 ;;      Params:         2       0       0       0       0
  1908 ;;      Locals:         2       0       0       0       0
  1909 ;;      Temps:          3       0       0       0       0
  1910 ;;      Totals:         7       0       0       0       0
  1911 ;;Total ram usage:        7 bytes
  1912 ;; Hardware stack levels used: 1
  1913 ;; Hardware stack levels required when called: 2
  1914 ;; This function calls:
  1915 ;;		_UART_Write
  1916 ;; This function is called by:
  1917 ;;		_main
  1918 ;; This function uses a non-reentrant model
  1919 ;;
  1920                           
  1921     0EE7                     _UART_Write_Text:	
  1922                           ;psect for function _UART_Write_Text
  1923                           
  1924     0EE7                     l1927:	
  1925                           ;incstack = 0
  1926                           ; Regs used in _UART_Write_Text: [wreg-fsr0h+status,2+status,0+btemp+1+pclath+cstack]
  1927                           
  1928                           
  1929                           ;UART_Lib.c: 45:     int i;;UART_Lib.c: 46:     for(i = 0; text[i] != '\0'; i++) {
  1930     0EE7  01F8               	clrf	UART_Write_Text@i
  1931     0EE8  01F9               	clrf	UART_Write_Text@i+1
  1932     0EE9  2F08               	goto	l1933
  1933     0EEA                     l1929:
  1934                           
  1935                           ;UART_Lib.c: 47:         UART_Write(text[i]);
  1936     0EEA  0878               	movf	UART_Write_Text@i,w
  1937     0EEB  0773               	addwf	UART_Write_Text@text,w
  1938     0EEC  00F6               	movwf	??_UART_Write_Text+1
  1939     0EED  0874               	movf	UART_Write_Text@text+1,w
  1940     0EEE  00F5               	movwf	??_UART_Write_Text
  1941     0EEF  1803               	skipnc
  1942     0EF0  0AF5               	incf	??_UART_Write_Text,f
  1943     0EF1  1FF8               	btfss	UART_Write_Text@i,7
  1944     0EF2  2EF4               	goto	u2160
  1945     0EF3  03F5               	decf	??_UART_Write_Text,f
  1946     0EF4                     u2160:
  1947     0EF4  0875               	movf	??_UART_Write_Text,w
  1948     0EF5  00F7               	movwf	??_UART_Write_Text+2
  1949     0EF6  0877               	movf	??_UART_Write_Text+2,w
  1950     0EF7  1283               	bcf	3,5	;RP0=0, select bank0
  1951     0EF8  1303               	bcf	3,6	;RP1=0, select bank0
  1952     0EF9  00FF               	movwf	btemp+1
  1953     0EFA  0876               	movf	??_UART_Write_Text+1,w
  1954     0EFB  0084               	movwf	4
  1955     0EFC  118A  2600  158A   	fcall	stringtab
  1956     0EFF  118A  25EF  158A   	fcall	_UART_Write
  1957     0F02                     l1931:
  1958                           
  1959                           ;UART_Lib.c: 48:     }
  1960     0F02  3001               	movlw	1
  1961     0F03  07F8               	addwf	UART_Write_Text@i,f
  1962     0F04  1803               	skipnc
  1963     0F05  0AF9               	incf	UART_Write_Text@i+1,f
  1964     0F06  3000               	movlw	0
  1965     0F07  07F9               	addwf	UART_Write_Text@i+1,f
  1966     0F08                     l1933:
  1967     0F08  0878               	movf	UART_Write_Text@i,w
  1968     0F09  0773               	addwf	UART_Write_Text@text,w
  1969     0F0A  00F6               	movwf	??_UART_Write_Text+1
  1970     0F0B  0874               	movf	UART_Write_Text@text+1,w
  1971     0F0C  00F5               	movwf	??_UART_Write_Text
  1972     0F0D  1803               	skipnc
  1973     0F0E  0AF5               	incf	??_UART_Write_Text,f
  1974     0F0F  1FF8               	btfss	UART_Write_Text@i,7
  1975     0F10  2F12               	goto	u2170
  1976     0F11  03F5               	decf	??_UART_Write_Text,f
  1977     0F12                     u2170:
  1978     0F12  0875               	movf	??_UART_Write_Text,w
  1979     0F13  00F7               	movwf	??_UART_Write_Text+2
  1980     0F14  0877               	movf	??_UART_Write_Text+2,w
  1981     0F15  1283               	bcf	3,5	;RP0=0, select bank0
  1982     0F16  1303               	bcf	3,6	;RP1=0, select bank0
  1983     0F17  00FF               	movwf	btemp+1
  1984     0F18  0876               	movf	??_UART_Write_Text+1,w
  1985     0F19  0084               	movwf	4
  1986     0F1A  118A  2600  158A   	fcall	stringtab
  1987     0F1D  3A00               	xorlw	0
  1988     0F1E  1D03               	skipz
  1989     0F1F  2F21               	goto	u2181
  1990     0F20  2F22               	goto	u2180
  1991     0F21                     u2181:
  1992     0F21  2EEA               	goto	l1929
  1993     0F22                     u2180:
  1994     0F22                     l256:
  1995     0F22  0008               	return
  1996     0F23                     __end_of_UART_Write_Text:
  1997                           
  1998                           	psect	text5
  1999     05EF                     __ptext5:	
  2000 ;; *************** function _UART_Write *****************
  2001 ;; Defined at:
  2002 ;;		line 27 in file "UART_Lib.c"
  2003 ;; Parameters:    Size  Location     Type
  2004 ;;  data            1    wreg     unsigned char 
  2005 ;; Auto vars:     Size  Location     Type
  2006 ;;  data            1    2[COMMON] unsigned char 
  2007 ;; Return value:  Size  Location     Type
  2008 ;;                  1    wreg      void 
  2009 ;; Registers used:
  2010 ;;		wreg
  2011 ;; Tracked objects:
  2012 ;;		On entry : 0/0
  2013 ;;		On exit  : 0/0
  2014 ;;		Unchanged: 0/0
  2015 ;; Data sizes:     COMMON   BANK0   BANK1   BANK3   BANK2
  2016 ;;      Params:         0       0       0       0       0
  2017 ;;      Locals:         1       0       0       0       0
  2018 ;;      Temps:          0       0       0       0       0
  2019 ;;      Totals:         1       0       0       0       0
  2020 ;;Total ram usage:        1 bytes
  2021 ;; Hardware stack levels used: 1
  2022 ;; Hardware stack levels required when called: 1
  2023 ;; This function calls:
  2024 ;;		Nothing
  2025 ;; This function is called by:
  2026 ;;		_main
  2027 ;;		_UART_Write_Text
  2028 ;; This function uses a non-reentrant model
  2029 ;;
  2030                           
  2031     05EF                     _UART_Write:	
  2032                           ;psect for function _UART_Write
  2033                           
  2034                           
  2035                           ;incstack = 0
  2036                           ; Regs used in _UART_Write: [wreg]
  2037                           ;UART_Write@data stored from wreg
  2038     05EF  00F2               	movwf	UART_Write@data
  2039     05F0                     l1691:
  2040     05F0                     l238:	
  2041                           ;UART_Lib.c: 29:     while(!TRMT);
  2042                           
  2043     05F0  1683               	bsf	3,5	;RP0=1, select bank1
  2044     05F1  1303               	bcf	3,6	;RP1=0, select bank1
  2045     05F2  1C98               	btfss	24,1	;volatile
  2046     05F3  2DF5               	goto	u1761
  2047     05F4  2DF6               	goto	u1760
  2048     05F5                     u1761:
  2049     05F5  2DF0               	goto	l238
  2050     05F6                     u1760:
  2051     05F6                     l1693:
  2052                           
  2053                           ;UART_Lib.c: 30:     TXREG = data;
  2054     05F6  0872               	movf	UART_Write@data,w
  2055     05F7  1283               	bcf	3,5	;RP0=0, select bank0
  2056     05F8  1303               	bcf	3,6	;RP1=0, select bank0
  2057     05F9  0099               	movwf	25	;volatile
  2058     05FA                     l241:
  2059     05FA  0008               	return
  2060     05FB                     __end_of_UART_Write:
  2061                           
  2062                           	psect	text6
  2063     0E09                     __ptext6:	
  2064 ;; *************** function _UART_Init *****************
  2065 ;; Defined at:
  2066 ;;		line 4 in file "UART_Lib.c"
  2067 ;; Parameters:    Size  Location     Type
  2068 ;;		None
  2069 ;; Auto vars:     Size  Location     Type
  2070 ;;		None
  2071 ;; Return value:  Size  Location     Type
  2072 ;;                  1    wreg      void 
  2073 ;; Registers used:
  2074 ;;		None
  2075 ;; Tracked objects:
  2076 ;;		On entry : 0/0
  2077 ;;		On exit  : 0/0
  2078 ;;		Unchanged: 0/0
  2079 ;; Data sizes:     COMMON   BANK0   BANK1   BANK3   BANK2
  2080 ;;      Params:         0       0       0       0       0
  2081 ;;      Locals:         0       0       0       0       0
  2082 ;;      Temps:          0       0       0       0       0
  2083 ;;      Totals:         0       0       0       0       0
  2084 ;;Total ram usage:        0 bytes
  2085 ;; Hardware stack levels used: 1
  2086 ;; Hardware stack levels required when called: 1
  2087 ;; This function calls:
  2088 ;;		Nothing
  2089 ;; This function is called by:
  2090 ;;		_main
  2091 ;; This function uses a non-reentrant model
  2092 ;;
  2093                           
  2094     0E09                     _UART_Init:	
  2095                           ;psect for function _UART_Init
  2096                           
  2097     0E09                     l1907:	
  2098                           ;incstack = 0
  2099                           ; Regs used in _UART_Init: []
  2100                           
  2101                           
  2102                           ;UART_Lib.c: 10:     BRGH = 1;
  2103     0E09  1683               	bsf	3,5	;RP0=1, select bank1
  2104     0E0A  1303               	bcf	3,6	;RP1=0, select bank1
  2105     0E0B  1518               	bsf	24,2	;volatile
  2106                           
  2107                           ;UART_Lib.c: 11:     SPBRG = 51;
  2108     0E0C  3033               	movlw	51
  2109     0E0D  0099               	movwf	25	;volatile
  2110                           
  2111                           ;UART_Lib.c: 15:     TRISBbits.TRISB2 = 1;
  2112     0E0E  1506               	bsf	6,2	;volatile
  2113                           
  2114                           ;UART_Lib.c: 16:     TRISBbits.TRISB5 = 0;
  2115     0E0F  1286               	bcf	6,5	;volatile
  2116                           
  2117                           ;UART_Lib.c: 19:     SYNC = 0;
  2118     0E10  1218               	bcf	24,4	;volatile
  2119                           
  2120                           ;UART_Lib.c: 20:     SPEN = 1;
  2121     0E11  1283               	bcf	3,5	;RP0=0, select bank0
  2122     0E12  1303               	bcf	3,6	;RP1=0, select bank0
  2123     0E13  1798               	bsf	24,7	;volatile
  2124                           
  2125                           ;UART_Lib.c: 23:     TXEN = 1;
  2126     0E14  1683               	bsf	3,5	;RP0=1, select bank1
  2127     0E15  1303               	bcf	3,6	;RP1=0, select bank1
  2128     0E16  1698               	bsf	24,5	;volatile
  2129                           
  2130                           ;UART_Lib.c: 24:     CREN = 1;
  2131     0E17  1283               	bcf	3,5	;RP0=0, select bank0
  2132     0E18  1303               	bcf	3,6	;RP1=0, select bank0
  2133     0E19  1618               	bsf	24,4	;volatile
  2134     0E1A                     l235:
  2135     0E1A  0008               	return
  2136     0E1B                     __end_of_UART_Init:
  2137                           
  2138                           	psect	text7
  2139     0E1B                     __ptext7:	
  2140 ;; *************** function _Time_Init *****************
  2141 ;; Defined at:
  2142 ;;		line 27 in file "Timer_lib.c"
  2143 ;; Parameters:    Size  Location     Type
  2144 ;;  mhz             1    wreg     unsigned char 
  2145 ;; Auto vars:     Size  Location     Type
  2146 ;;  mhz             1    2[COMMON] unsigned char 
  2147 ;; Return value:  Size  Location     Type
  2148 ;;                  1    wreg      void 
  2149 ;; Registers used:
  2150 ;;		wreg, status,2, status,0
  2151 ;; Tracked objects:
  2152 ;;		On entry : 0/0
  2153 ;;		On exit  : 0/0
  2154 ;;		Unchanged: 0/0
  2155 ;; Data sizes:     COMMON   BANK0   BANK1   BANK3   BANK2
  2156 ;;      Params:         0       0       0       0       0
  2157 ;;      Locals:         1       0       0       0       0
  2158 ;;      Temps:          0       0       0       0       0
  2159 ;;      Totals:         1       0       0       0       0
  2160 ;;Total ram usage:        1 bytes
  2161 ;; Hardware stack levels used: 1
  2162 ;; Hardware stack levels required when called: 1
  2163 ;; This function calls:
  2164 ;;		Nothing
  2165 ;; This function is called by:
  2166 ;;		_main
  2167 ;; This function uses a non-reentrant model
  2168 ;;
  2169                           
  2170     0E1B                     _Time_Init:	
  2171                           ;psect for function _Time_Init
  2172                           
  2173                           
  2174                           ;incstack = 0
  2175                           ; Regs used in _Time_Init: [wreg+status,2+status,0]
  2176                           ;Time_Init@mhz stored from wreg
  2177     0E1B  00F2               	movwf	Time_Init@mhz
  2178     0E1C                     l1911:
  2179                           
  2180                           ;Timer_lib.c: 29:     if (mhz == 4 || mhz == 8) {
  2181     0E1C  3004               	movlw	4
  2182     0E1D  0672               	xorwf	Time_Init@mhz,w
  2183     0E1E  1903               	btfsc	3,2
  2184     0E1F  2E21               	goto	u2141
  2185     0E20  2E22               	goto	u2140
  2186     0E21                     u2141:
  2187     0E21  2E28               	goto	l1915
  2188     0E22                     u2140:
  2189     0E22                     l1913:
  2190     0E22  3008               	movlw	8
  2191     0E23  0672               	xorwf	Time_Init@mhz,w
  2192     0E24  1D03               	btfss	3,2
  2193     0E25  2E27               	goto	u2151
  2194     0E26  2E28               	goto	u2150
  2195     0E27                     u2151:
  2196     0E27  2E2A               	goto	l1917
  2197     0E28                     u2150:
  2198     0E28                     l1915:
  2199                           
  2200                           ;Timer_lib.c: 30:         current_freq_mhz = mhz;
  2201     0E28  0872               	movf	Time_Init@mhz,w
  2202     0E29  00FB               	movwf	_current_freq_mhz	;volatile
  2203     0E2A                     l1917:
  2204                           
  2205                           ;Timer_lib.c: 33:     OPTION_REG = 0b00001000;
  2206     0E2A  3008               	movlw	8
  2207     0E2B  1683               	bsf	3,5	;RP0=1, select bank1
  2208     0E2C  1303               	bcf	3,6	;RP1=0, select bank1
  2209     0E2D  0081               	movwf	1	;volatile
  2210     0E2E                     l1919:
  2211                           
  2212                           ;Timer_lib.c: 34:     TMR0 = 0;
  2213     0E2E  1283               	bcf	3,5	;RP0=0, select bank0
  2214     0E2F  1303               	bcf	3,6	;RP1=0, select bank0
  2215     0E30  0181               	clrf	1	;volatile
  2216     0E31                     l1921:
  2217                           
  2218                           ;Timer_lib.c: 35:     TMR0IF = 0;
  2219     0E31  110B               	bcf	11,2	;volatile
  2220     0E32                     l1923:
  2221                           
  2222                           ;Timer_lib.c: 36:     TMR0IE = 1;
  2223     0E32  168B               	bsf	11,5	;volatile
  2224     0E33                     l1925:
  2225                           
  2226                           ;Timer_lib.c: 37:     GIE = 1;
  2227     0E33  178B               	bsf	11,7	;volatile
  2228     0E34                     l200:
  2229     0E34  0008               	return
  2230     0E35                     __end_of_Time_Init:
  2231                           
  2232                           	psect	text8
  2233     0425                     __ptext8:	
  2234 ;; *************** function _IntToText *****************
  2235 ;; Defined at:
  2236 ;;		line 32 in file "Test_AC.c"
  2237 ;; Parameters:    Size  Location     Type
  2238 ;;  buf             1    0[BANK0 ] PTR unsigned char 
  2239 ;;		 -> main@buffer(10), 
  2240 ;;  n               2    1[BANK0 ] int 
  2241 ;; Auto vars:     Size  Location     Type
  2242 ;;  temp            1    7[BANK0 ] unsigned char 
  2243 ;;  i               2   12[BANK0 ] int 
  2244 ;;  end             2   10[BANK0 ] int 
  2245 ;;  start           2    8[BANK0 ] int 
  2246 ;;  sign            2    5[BANK0 ] int 
  2247 ;; Return value:  Size  Location     Type
  2248 ;;                  1    wreg      void 
  2249 ;; Registers used:
  2250 ;;		wreg, fsr0l, fsr0h, status,2, status,0, btemp+1, pclath, cstack
  2251 ;; Tracked objects:
  2252 ;;		On entry : 0/0
  2253 ;;		On exit  : 0/0
  2254 ;;		Unchanged: 0/0
  2255 ;; Data sizes:     COMMON   BANK0   BANK1   BANK3   BANK2
  2256 ;;      Params:         0       3       0       0       0
  2257 ;;      Locals:         0       9       0       0       0
  2258 ;;      Temps:          0       2       0       0       0
  2259 ;;      Totals:         0      14       0       0       0
  2260 ;;Total ram usage:       14 bytes
  2261 ;; Hardware stack levels used: 1
  2262 ;; Hardware stack levels required when called: 2
  2263 ;; This function calls:
  2264 ;;		___awdiv
  2265 ;;		___awmod
  2266 ;; This function is called by:
  2267 ;;		_main
  2268 ;; This function uses a non-reentrant model
  2269 ;;
  2270                           
  2271     0425                     _IntToText:	
  2272                           ;psect for function _IntToText
  2273                           
  2274     0425                     l1863:	
  2275                           ;incstack = 0
  2276                           ; Regs used in _IntToText: [wreg-fsr0h+status,2+status,0+btemp+1+pclath+cstack]
  2277                           
  2278                           
  2279                           ;Test_AC.c: 33:     int i = 0;
  2280     0425  1283               	bcf	3,5	;RP0=0, select bank0
  2281     0426  1303               	bcf	3,6	;RP1=0, select bank0
  2282     0427  01AC               	clrf	IntToText@i
  2283     0428  01AD               	clrf	IntToText@i+1
  2284     0429                     l1865:
  2285                           
  2286                           ;Test_AC.c: 34:     int sign = n;
  2287     0429  0822               	movf	IntToText@n+1,w
  2288     042A  00A6               	movwf	IntToText@sign+1
  2289     042B  0821               	movf	IntToText@n,w
  2290     042C  00A5               	movwf	IntToText@sign
  2291     042D                     l1867:
  2292                           
  2293                           ;Test_AC.c: 36:     if (n == 0) {
  2294     042D  0821               	movf	IntToText@n,w
  2295     042E  0422               	iorwf	IntToText@n+1,w
  2296     042F  1D03               	btfss	3,2
  2297     0430  2C32               	goto	u2091
  2298     0431  2C33               	goto	u2090
  2299     0432                     u2091:
  2300     0432  2C3C               	goto	l65
  2301     0433                     u2090:
  2302     0433                     l1869:
  2303                           
  2304                           ;Test_AC.c: 37:         buf[0] = '0';
  2305     0433  0820               	movf	IntToText@buf,w
  2306     0434  0084               	movwf	4
  2307     0435  3030               	movlw	48
  2308     0436  1383               	bcf	3,7	;select IRP bank0
  2309     0437  0080               	movwf	0
  2310     0438                     l1871:
  2311                           
  2312                           ;Test_AC.c: 38:         buf[1] = '\0';
  2313     0438  0A20               	incf	IntToText@buf,w
  2314     0439  0084               	movwf	4
  2315     043A  0180               	clrf	0
  2316     043B  2CE1               	goto	l66
  2317     043C                     l65:	
  2318                           ;Test_AC.c: 40:     }
  2319                           
  2320                           
  2321                           ;Test_AC.c: 42:     if (n < 0) n = -n;
  2322     043C  1FA2               	btfss	IntToText@n+1,7
  2323     043D  2C3F               	goto	u2101
  2324     043E  2C40               	goto	u2100
  2325     043F                     u2101:
  2326     043F  2C75               	goto	l1883
  2327     0440                     u2100:
  2328     0440                     l1875:
  2329     0440  09A1               	comf	IntToText@n,f
  2330     0441  09A2               	comf	IntToText@n+1,f
  2331     0442  0AA1               	incf	IntToText@n,f
  2332     0443  1903               	skipnz
  2333     0444  0AA2               	incf	IntToText@n+1,f
  2334     0445  2C75               	goto	l1883
  2335     0446                     l1877:
  2336                           
  2337                           ;Test_AC.c: 45:         buf[i++] = (n % 10) + '0';
  2338     0446  1283               	bcf	3,5	;RP0=0, select bank0
  2339     0447  1303               	bcf	3,6	;RP1=0, select bank0
  2340     0448  082C               	movf	IntToText@i,w
  2341     0449  0720               	addwf	IntToText@buf,w
  2342     044A  00A3               	movwf	??_IntToText
  2343     044B  0823               	movf	??_IntToText,w
  2344     044C  0084               	movwf	4
  2345     044D  300A               	movlw	10
  2346     044E  00F2               	movwf	___awmod@divisor
  2347     044F  3000               	movlw	0
  2348     0450  00F3               	movwf	___awmod@divisor+1
  2349     0451  0822               	movf	IntToText@n+1,w
  2350     0452  00F5               	movwf	___awmod@dividend+1
  2351     0453  0821               	movf	IntToText@n,w
  2352     0454  00F4               	movwf	___awmod@dividend
  2353     0455  118A  2790  118A   	fcall	___awmod
  2354     0458  0872               	movf	?___awmod,w
  2355     0459  3E30               	addlw	48
  2356     045A  1383               	bcf	3,7	;select IRP bank0
  2357     045B  0080               	movwf	0
  2358     045C                     l1879:
  2359     045C  3001               	movlw	1
  2360     045D  1283               	bcf	3,5	;RP0=0, select bank0
  2361     045E  1303               	bcf	3,6	;RP1=0, select bank0
  2362     045F  07AC               	addwf	IntToText@i,f
  2363     0460  1803               	skipnc
  2364     0461  0AAD               	incf	IntToText@i+1,f
  2365     0462  3000               	movlw	0
  2366     0463  07AD               	addwf	IntToText@i+1,f
  2367     0464                     l1881:
  2368                           
  2369                           ;Test_AC.c: 46:         n /= 10;
  2370     0464  300A               	movlw	10
  2371     0465  00F2               	movwf	___awdiv@divisor
  2372     0466  3000               	movlw	0
  2373     0467  00F3               	movwf	___awdiv@divisor+1
  2374     0468  0822               	movf	IntToText@n+1,w
  2375     0469  00F5               	movwf	___awdiv@dividend+1
  2376     046A  0821               	movf	IntToText@n,w
  2377     046B  00F4               	movwf	___awdiv@dividend
  2378     046C  118A  26CE  118A   	fcall	___awdiv
  2379     046F  0873               	movf	?___awdiv+1,w
  2380     0470  1283               	bcf	3,5	;RP0=0, select bank0
  2381     0471  1303               	bcf	3,6	;RP1=0, select bank0
  2382     0472  00A2               	movwf	IntToText@n+1
  2383     0473  0872               	movf	?___awdiv,w
  2384     0474  00A1               	movwf	IntToText@n
  2385     0475                     l1883:
  2386                           
  2387                           ;Test_AC.c: 44:     while (n > 0) {
  2388     0475  0822               	movf	IntToText@n+1,w
  2389     0476  3A80               	xorlw	128
  2390     0477  00FF               	movwf	btemp+1
  2391     0478  3080               	movlw	128
  2392     0479  027F               	subwf	btemp+1,w
  2393     047A  1D03               	skipz
  2394     047B  2C7E               	goto	u2115
  2395     047C  3001               	movlw	1
  2396     047D  0221               	subwf	IntToText@n,w
  2397     047E                     u2115:
  2398     047E  1803               	skipnc
  2399     047F  2C81               	goto	u2111
  2400     0480  2C82               	goto	u2110
  2401     0481                     u2111:
  2402     0481  2C46               	goto	l1877
  2403     0482                     u2110:
  2404     0482                     l70:
  2405                           
  2406                           ;Test_AC.c: 49:     if (sign < 0) buf[i++] = '-';
  2407     0482  1283               	bcf	3,5	;RP0=0, select bank0
  2408     0483  1303               	bcf	3,6	;RP1=0, select bank0
  2409     0484  1FA6               	btfss	IntToText@sign+1,7
  2410     0485  2C87               	goto	u2121
  2411     0486  2C88               	goto	u2120
  2412     0487                     u2121:
  2413     0487  2C96               	goto	l1889
  2414     0488                     u2120:
  2415     0488                     l1885:
  2416     0488  082C               	movf	IntToText@i,w
  2417     0489  0720               	addwf	IntToText@buf,w
  2418     048A  00A3               	movwf	??_IntToText
  2419     048B  0823               	movf	??_IntToText,w
  2420     048C  0084               	movwf	4
  2421     048D  302D               	movlw	45
  2422     048E  1383               	bcf	3,7	;select IRP bank0
  2423     048F  0080               	movwf	0
  2424     0490                     l1887:
  2425     0490  3001               	movlw	1
  2426     0491  07AC               	addwf	IntToText@i,f
  2427     0492  1803               	skipnc
  2428     0493  0AAD               	incf	IntToText@i+1,f
  2429     0494  3000               	movlw	0
  2430     0495  07AD               	addwf	IntToText@i+1,f
  2431     0496                     l1889:
  2432                           
  2433                           ;Test_AC.c: 50:     buf[i] = '\0';
  2434     0496  082C               	movf	IntToText@i,w
  2435     0497  0720               	addwf	IntToText@buf,w
  2436     0498  00A3               	movwf	??_IntToText
  2437     0499  0823               	movf	??_IntToText,w
  2438     049A  0084               	movwf	4
  2439     049B  1383               	bcf	3,7	;select IRP bank0
  2440     049C  0180               	clrf	0
  2441     049D                     l1891:
  2442                           
  2443                           ;Test_AC.c: 53:     int start = 0;
  2444     049D  01A8               	clrf	IntToText@start
  2445     049E  01A9               	clrf	IntToText@start+1
  2446     049F                     l1893:
  2447                           
  2448                           ;Test_AC.c: 54:     int end = i - 1;
  2449     049F  082C               	movf	IntToText@i,w
  2450     04A0  3EFF               	addlw	255
  2451     04A1  00AA               	movwf	IntToText@end
  2452     04A2  082D               	movf	IntToText@i+1,w
  2453     04A3  1803               	skipnc
  2454     04A4  3E01               	addlw	1
  2455     04A5  3EFF               	addlw	255
  2456     04A6  00AB               	movwf	IntToText@end+1
  2457                           
  2458                           ;Test_AC.c: 55:     while (start < end) {
  2459     04A7  2CD3               	goto	l1905
  2460     04A8                     l1895:
  2461                           
  2462                           ;Test_AC.c: 56:         char temp = buf[start];
  2463     04A8  1283               	bcf	3,5	;RP0=0, select bank0
  2464     04A9  1303               	bcf	3,6	;RP1=0, select bank0
  2465     04AA  0828               	movf	IntToText@start,w
  2466     04AB  0720               	addwf	IntToText@buf,w
  2467     04AC  00A3               	movwf	??_IntToText
  2468     04AD  0823               	movf	??_IntToText,w
  2469     04AE  0084               	movwf	4
  2470     04AF  1383               	bcf	3,7	;select IRP bank0
  2471     04B0  0800               	movf	0,w
  2472     04B1  00A7               	movwf	IntToText@temp
  2473     04B2                     l1897:
  2474                           
  2475                           ;Test_AC.c: 57:         buf[start] = buf[end];
  2476     04B2  082A               	movf	IntToText@end,w
  2477     04B3  0720               	addwf	IntToText@buf,w
  2478     04B4  00A3               	movwf	??_IntToText
  2479     04B5  0823               	movf	??_IntToText,w
  2480     04B6  0084               	movwf	4
  2481     04B7  0800               	movf	0,w
  2482     04B8  00FF               	movwf	btemp+1
  2483     04B9  0828               	movf	IntToText@start,w
  2484     04BA  0720               	addwf	IntToText@buf,w
  2485     04BB  00A4               	movwf	??_IntToText+1
  2486     04BC  0824               	movf	??_IntToText+1,w
  2487     04BD  0084               	movwf	4
  2488     04BE  087F               	movf	btemp+1,w
  2489     04BF  0080               	movwf	0
  2490     04C0                     l1899:
  2491                           
  2492                           ;Test_AC.c: 58:         buf[end] = temp;
  2493     04C0  082A               	movf	IntToText@end,w
  2494     04C1  0720               	addwf	IntToText@buf,w
  2495     04C2  00A3               	movwf	??_IntToText
  2496     04C3  0823               	movf	??_IntToText,w
  2497     04C4  0084               	movwf	4
  2498     04C5  0827               	movf	IntToText@temp,w
  2499     04C6  0080               	movwf	0
  2500     04C7                     l1901:
  2501                           
  2502                           ;Test_AC.c: 59:         start++;
  2503     04C7  3001               	movlw	1
  2504     04C8  07A8               	addwf	IntToText@start,f
  2505     04C9  1803               	skipnc
  2506     04CA  0AA9               	incf	IntToText@start+1,f
  2507     04CB  3000               	movlw	0
  2508     04CC  07A9               	addwf	IntToText@start+1,f
  2509     04CD                     l1903:
  2510                           
  2511                           ;Test_AC.c: 60:         end--;
  2512     04CD  30FF               	movlw	255
  2513     04CE  07AA               	addwf	IntToText@end,f
  2514     04CF  1803               	skipnc
  2515     04D0  0AAB               	incf	IntToText@end+1,f
  2516     04D1  30FF               	movlw	255
  2517     04D2  07AB               	addwf	IntToText@end+1,f
  2518     04D3                     l1905:
  2519                           
  2520                           ;Test_AC.c: 55:     while (start < end) {
  2521     04D3  0829               	movf	IntToText@start+1,w
  2522     04D4  3A80               	xorlw	128
  2523     04D5  00A3               	movwf	??_IntToText
  2524     04D6  082B               	movf	IntToText@end+1,w
  2525     04D7  3A80               	xorlw	128
  2526     04D8  0223               	subwf	??_IntToText,w
  2527     04D9  1D03               	skipz
  2528     04DA  2CDD               	goto	u2135
  2529     04DB  082A               	movf	IntToText@end,w
  2530     04DC  0228               	subwf	IntToText@start,w
  2531     04DD                     u2135:
  2532     04DD  1C03               	skipc
  2533     04DE  2CE0               	goto	u2131
  2534     04DF  2CE1               	goto	u2130
  2535     04E0                     u2131:
  2536     04E0  2CA8               	goto	l1895
  2537     04E1                     u2130:
  2538     04E1                     l66:
  2539     04E1  0008               	return
  2540     04E2                     __end_of_IntToText:
  2541                           
  2542                           	psect	text9
  2543     0790                     __ptext9:	
  2544 ;; *************** function ___awmod *****************
  2545 ;; Defined at:
  2546 ;;		line 5 in file "C:\Program Files\Microchip\xc8\v3.00\pic\sources\c99\common\awmod.c"
  2547 ;; Parameters:    Size  Location     Type
  2548 ;;  divisor         2    2[COMMON] int 
  2549 ;;  dividend        2    4[COMMON] int 
  2550 ;; Auto vars:     Size  Location     Type
  2551 ;;  sign            1    7[COMMON] unsigned char 
  2552 ;;  counter         1    6[COMMON] unsigned char 
  2553 ;; Return value:  Size  Location     Type
  2554 ;;                  2    2[COMMON] int 
  2555 ;; Registers used:
  2556 ;;		wreg, status,2, status,0
  2557 ;; Tracked objects:
  2558 ;;		On entry : 0/0
  2559 ;;		On exit  : 0/0
  2560 ;;		Unchanged: 0/0
  2561 ;; Data sizes:     COMMON   BANK0   BANK1   BANK3   BANK2
  2562 ;;      Params:         4       0       0       0       0
  2563 ;;      Locals:         2       0       0       0       0
  2564 ;;      Temps:          0       0       0       0       0
  2565 ;;      Totals:         6       0       0       0       0
  2566 ;;Total ram usage:        6 bytes
  2567 ;; Hardware stack levels used: 1
  2568 ;; Hardware stack levels required when called: 1
  2569 ;; This function calls:
  2570 ;;		Nothing
  2571 ;; This function is called by:
  2572 ;;		_IntToText
  2573 ;; This function uses a non-reentrant model
  2574 ;;
  2575                           
  2576     0790                     ___awmod:	
  2577                           ;psect for function ___awmod
  2578                           
  2579     0790                     l1753:	
  2580                           ;incstack = 0
  2581                           ; Regs used in ___awmod: [wreg+status,2+status,0]
  2582                           
  2583     0790  01F7               	clrf	___awmod@sign
  2584     0791                     l1755:
  2585     0791  1FF5               	btfss	___awmod@dividend+1,7
  2586     0792  2F94               	goto	u1921
  2587     0793  2F95               	goto	u1920
  2588     0794                     u1921:
  2589     0794  2F9C               	goto	l1761
  2590     0795                     u1920:
  2591     0795                     l1757:
  2592     0795  09F4               	comf	___awmod@dividend,f
  2593     0796  09F5               	comf	___awmod@dividend+1,f
  2594     0797  0AF4               	incf	___awmod@dividend,f
  2595     0798  1903               	skipnz
  2596     0799  0AF5               	incf	___awmod@dividend+1,f
  2597     079A                     l1759:
  2598     079A  3001               	movlw	1
  2599     079B  00F7               	movwf	___awmod@sign
  2600     079C                     l1761:
  2601     079C  1FF3               	btfss	___awmod@divisor+1,7
  2602     079D  2F9F               	goto	u1931
  2603     079E  2FA0               	goto	u1930
  2604     079F                     u1931:
  2605     079F  2FA5               	goto	l1765
  2606     07A0                     u1930:
  2607     07A0                     l1763:
  2608     07A0  09F2               	comf	___awmod@divisor,f
  2609     07A1  09F3               	comf	___awmod@divisor+1,f
  2610     07A2  0AF2               	incf	___awmod@divisor,f
  2611     07A3  1903               	skipnz
  2612     07A4  0AF3               	incf	___awmod@divisor+1,f
  2613     07A5                     l1765:
  2614     07A5  0872               	movf	___awmod@divisor,w
  2615     07A6  0473               	iorwf	___awmod@divisor+1,w
  2616     07A7  1903               	btfsc	3,2
  2617     07A8  2FAA               	goto	u1941
  2618     07A9  2FAB               	goto	u1940
  2619     07AA                     u1941:
  2620     07AA  2FD8               	goto	l1783
  2621     07AB                     u1940:
  2622     07AB                     l1767:
  2623     07AB  3001               	movlw	1
  2624     07AC  00F6               	movwf	___awmod@counter
  2625     07AD  2FB7               	goto	l1773
  2626     07AE                     l1769:
  2627     07AE  3001               	movlw	1
  2628     07AF                     u1955:
  2629     07AF  1003               	clrc
  2630     07B0  0DF2               	rlf	___awmod@divisor,f
  2631     07B1  0DF3               	rlf	___awmod@divisor+1,f
  2632     07B2  3EFF               	addlw	-1
  2633     07B3  1D03               	skipz
  2634     07B4  2FAF               	goto	u1955
  2635     07B5                     l1771:
  2636     07B5  3001               	movlw	1
  2637     07B6  07F6               	addwf	___awmod@counter,f
  2638     07B7                     l1773:
  2639     07B7  1FF3               	btfss	___awmod@divisor+1,7
  2640     07B8  2FBA               	goto	u1961
  2641     07B9  2FBB               	goto	u1960
  2642     07BA                     u1961:
  2643     07BA  2FAE               	goto	l1769
  2644     07BB                     u1960:
  2645     07BB                     l1775:
  2646     07BB  0873               	movf	___awmod@divisor+1,w
  2647     07BC  0275               	subwf	___awmod@dividend+1,w
  2648     07BD  1D03               	skipz
  2649     07BE  2FC1               	goto	u1975
  2650     07BF  0872               	movf	___awmod@divisor,w
  2651     07C0  0274               	subwf	___awmod@dividend,w
  2652     07C1                     u1975:
  2653     07C1  1C03               	skipc
  2654     07C2  2FC4               	goto	u1971
  2655     07C3  2FC5               	goto	u1970
  2656     07C4                     u1971:
  2657     07C4  2FCB               	goto	l1779
  2658     07C5                     u1970:
  2659     07C5                     l1777:
  2660     07C5  0872               	movf	___awmod@divisor,w
  2661     07C6  02F4               	subwf	___awmod@dividend,f
  2662     07C7  0873               	movf	___awmod@divisor+1,w
  2663     07C8  1C03               	skipc
  2664     07C9  03F5               	decf	___awmod@dividend+1,f
  2665     07CA  02F5               	subwf	___awmod@dividend+1,f
  2666     07CB                     l1779:
  2667     07CB  3001               	movlw	1
  2668     07CC                     u1985:
  2669     07CC  1003               	clrc
  2670     07CD  0CF3               	rrf	___awmod@divisor+1,f
  2671     07CE  0CF2               	rrf	___awmod@divisor,f
  2672     07CF  3EFF               	addlw	-1
  2673     07D0  1D03               	skipz
  2674     07D1  2FCC               	goto	u1985
  2675     07D2                     l1781:
  2676     07D2  3001               	movlw	1
  2677     07D3  02F6               	subwf	___awmod@counter,f
  2678     07D4  1D03               	btfss	3,2
  2679     07D5  2FD7               	goto	u1991
  2680     07D6  2FD8               	goto	u1990
  2681     07D7                     u1991:
  2682     07D7  2FBB               	goto	l1775
  2683     07D8                     u1990:
  2684     07D8                     l1783:
  2685     07D8  0877               	movf	___awmod@sign,w
  2686     07D9  1903               	btfsc	3,2
  2687     07DA  2FDC               	goto	u2001
  2688     07DB  2FDD               	goto	u2000
  2689     07DC                     u2001:
  2690     07DC  2FE2               	goto	l1787
  2691     07DD                     u2000:
  2692     07DD                     l1785:
  2693     07DD  09F4               	comf	___awmod@dividend,f
  2694     07DE  09F5               	comf	___awmod@dividend+1,f
  2695     07DF  0AF4               	incf	___awmod@dividend,f
  2696     07E0  1903               	skipnz
  2697     07E1  0AF5               	incf	___awmod@dividend+1,f
  2698     07E2                     l1787:
  2699     07E2  0875               	movf	___awmod@dividend+1,w
  2700     07E3  00F3               	movwf	?___awmod+1
  2701     07E4  0874               	movf	___awmod@dividend,w
  2702     07E5  00F2               	movwf	?___awmod
  2703     07E6                     l447:
  2704     07E6  0008               	return
  2705     07E7                     __end_of___awmod:
  2706                           
  2707                           	psect	text10
  2708     0E01                     __ptext10:	
  2709 ;; *************** function _ADC_Init *****************
  2710 ;; Defined at:
  2711 ;;		line 9 in file "ADC_Lib.c"
  2712 ;; Parameters:    Size  Location     Type
  2713 ;;		None
  2714 ;; Auto vars:     Size  Location     Type
  2715 ;;		None
  2716 ;; Return value:  Size  Location     Type
  2717 ;;                  1    wreg      void 
  2718 ;; Registers used:
  2719 ;;		None
  2720 ;; Tracked objects:
  2721 ;;		On entry : 0/0
  2722 ;;		On exit  : 0/0
  2723 ;;		Unchanged: 0/0
  2724 ;; Data sizes:     COMMON   BANK0   BANK1   BANK3   BANK2
  2725 ;;      Params:         0       0       0       0       0
  2726 ;;      Locals:         0       0       0       0       0
  2727 ;;      Temps:          0       0       0       0       0
  2728 ;;      Totals:         0       0       0       0       0
  2729 ;;Total ram usage:        0 bytes
  2730 ;; Hardware stack levels used: 1
  2731 ;; Hardware stack levels required when called: 1
  2732 ;; This function calls:
  2733 ;;		Nothing
  2734 ;; This function is called by:
  2735 ;;		_main
  2736 ;; This function uses a non-reentrant model
  2737 ;;
  2738                           
  2739     0E01                     _ADC_Init:	
  2740                           ;psect for function _ADC_Init
  2741                           
  2742     0E01                     l1909:	
  2743                           ;incstack = 0
  2744                           ; Regs used in _ADC_Init: []
  2745                           
  2746                           
  2747                           ;ADC_Lib.c: 14:     ADCON1 = 0b11000000;
  2748     0E01  30C0               	movlw	192
  2749     0E02  1683               	bsf	3,5	;RP0=1, select bank1
  2750     0E03  1303               	bcf	3,6	;RP1=0, select bank1
  2751     0E04  009F               	movwf	31	;volatile
  2752                           
  2753                           ;ADC_Lib.c: 21:     ADCON0bits.ADON = 1;
  2754     0E05  1283               	bcf	3,5	;RP0=0, select bank0
  2755     0E06  1303               	bcf	3,6	;RP1=0, select bank0
  2756     0E07  141F               	bsf	31,0	;volatile
  2757     0E08                     l271:
  2758     0E08  0008               	return
  2759     0E09                     __end_of_ADC_Init:
  2760                           
  2761                           	psect	text11
  2762     07E7                     __ptext11:	
  2763 ;; *************** function _ACS712_SetSensitivity *****************
  2764 ;; Defined at:
  2765 ;;		line 26 in file "ACS712.c"
  2766 ;; Parameters:    Size  Location     Type
  2767 ;;  sensor          2    2[COMMON] PTR struct .
  2768 ;;		 -> mySensor(9), 
  2769 ;;  sens_mv_a       2    4[COMMON] unsigned int 
  2770 ;; Auto vars:     Size  Location     Type
  2771 ;;		None
  2772 ;; Return value:  Size  Location     Type
  2773 ;;                  1    wreg      void 
  2774 ;; Registers used:
  2775 ;;		wreg, fsr0l, fsr0h, status,2, status,0
  2776 ;; Tracked objects:
  2777 ;;		On entry : 0/0
  2778 ;;		On exit  : 0/0
  2779 ;;		Unchanged: 0/0
  2780 ;; Data sizes:     COMMON   BANK0   BANK1   BANK3   BANK2
  2781 ;;      Params:         4       0       0       0       0
  2782 ;;      Locals:         0       0       0       0       0
  2783 ;;      Temps:          2       0       0       0       0
  2784 ;;      Totals:         6       0       0       0       0
  2785 ;;Total ram usage:        6 bytes
  2786 ;; Hardware stack levels used: 1
  2787 ;; Hardware stack levels required when called: 1
  2788 ;; This function calls:
  2789 ;;		Nothing
  2790 ;; This function is called by:
  2791 ;;		_main
  2792 ;; This function uses a non-reentrant model
  2793 ;;
  2794                           
  2795     07E7                     _ACS712_SetSensitivity:	
  2796                           ;psect for function _ACS712_SetSensitivity
  2797                           
  2798     07E7                     l1801:	
  2799                           ;incstack = 0
  2800                           ; Regs used in _ACS712_SetSensitivity: [wreg-fsr0h+status,2+status,0]
  2801                           
  2802                           
  2803                           ;ACS712.c: 27:     sensor->sensitivity_mV_A = sens_mv_a;
  2804     07E7  0872               	movf	ACS712_SetSensitivity@sensor,w
  2805     07E8  3E07               	addlw	7
  2806     07E9  00F6               	movwf	??_ACS712_SetSensitivity
  2807     07EA  0873               	movf	ACS712_SetSensitivity@sensor+1,w
  2808     07EB  1803               	skipnc
  2809     07EC  3E01               	addlw	1
  2810     07ED  3E00               	addlw	0
  2811     07EE  00F7               	movwf	??_ACS712_SetSensitivity+1
  2812     07EF  0876               	movf	??_ACS712_SetSensitivity,w
  2813     07F0  0084               	movwf	4
  2814     07F1  1783               	bsf	3,7
  2815     07F2  1C77               	btfss	??_ACS712_SetSensitivity+1,0
  2816     07F3  1383               	bcf	3,7
  2817     07F4  0874               	movf	ACS712_SetSensitivity@sens_mv_a,w
  2818     07F5  0080               	movwf	0
  2819     07F6  0A84               	incf	4,f
  2820     07F7  0875               	movf	ACS712_SetSensitivity@sens_mv_a+1,w
  2821     07F8  0080               	movwf	0
  2822     07F9                     l16:
  2823     07F9  0008               	return
  2824     07FA                     __end_of_ACS712_SetSensitivity:
  2825                           
  2826                           	psect	text12
  2827     0023                     __ptext12:	
  2828 ;; *************** function _ACS712_ReadAC *****************
  2829 ;; Defined at:
  2830 ;;		line 39 in file "ACS712.c"
  2831 ;; Parameters:    Size  Location     Type
  2832 ;;  sensor          2   35[BANK0 ] PTR struct .
  2833 ;;		 -> mySensor(9), 
  2834 ;;  frequency       1   37[BANK0 ] unsigned char 
  2835 ;; Auto vars:     Size  Location     Type
  2836 ;;  sample          4   36[BANK1 ] long 
  2837 ;;  count           4   32[BANK1 ] unsigned long 
  2838 ;;  period_us       4   28[BANK1 ] unsigned long 
  2839 ;;  accumulator     4   24[BANK1 ] unsigned long 
  2840 ;;  current_mA      4   20[BANK1 ] unsigned long 
  2841 ;;  voltage_rms_    4   16[BANK1 ] unsigned long 
  2842 ;;  rms_adc         4   12[BANK1 ] unsigned long 
  2843 ;;  avg_sq          4    8[BANK1 ] unsigned long 
  2844 ;;  zero            4    4[BANK1 ] long 
  2845 ;;  start_time      4    0[BANK1 ] unsigned long 
  2846 ;; Return value:  Size  Location     Type
  2847 ;;                  2   35[BANK0 ] unsigned int 
  2848 ;; Registers used:
  2849 ;;		wreg, fsr0l, fsr0h, status,2, status,0, pclath, cstack
  2850 ;; Tracked objects:
  2851 ;;		On entry : 0/0
  2852 ;;		On exit  : 0/0
  2853 ;;		Unchanged: 0/0
  2854 ;; Data sizes:     COMMON   BANK0   BANK1   BANK3   BANK2
  2855 ;;      Params:         0       3       0       0       0
  2856 ;;      Locals:         0       0      40       0       0
  2857 ;;      Temps:          0       8       0       0       0
  2858 ;;      Totals:         0      11      40       0       0
  2859 ;;Total ram usage:       51 bytes
  2860 ;; Hardware stack levels used: 1
  2861 ;; Hardware stack levels required when called: 3
  2862 ;; This function calls:
  2863 ;;		_ADC_Read
  2864 ;;		___lldiv
  2865 ;;		___lmul
  2866 ;;		_isqrt
  2867 ;;		_micros
  2868 ;; This function is called by:
  2869 ;;		_main
  2870 ;; This function uses a non-reentrant model
  2871 ;;
  2872                           
  2873     0023                     _ACS712_ReadAC:	
  2874                           ;psect for function _ACS712_ReadAC
  2875                           
  2876     0023                     l1819:	
  2877                           ;incstack = 0
  2878                           ; Regs used in _ACS712_ReadAC: [wreg-fsr0h+status,2+status,0+pclath+cstack]
  2879                           
  2880                           
  2881                           ;ACS712.c: 40:     unsigned long period_us;;ACS712.c: 43:     if (frequency == 60) perio
      +                          d_us = 16666;
  2882     0023  303C               	movlw	60
  2883     0024  1283               	bcf	3,5	;RP0=0, select bank0
  2884     0025  1303               	bcf	3,6	;RP1=0, select bank0
  2885     0026  0645               	xorwf	ACS712_ReadAC@frequency,w
  2886     0027  1D03               	btfss	3,2
  2887     0028  282A               	goto	u2031
  2888     0029  282B               	goto	u2030
  2889     002A                     u2031:
  2890     002A  2836               	goto	l1823
  2891     002B                     u2030:
  2892     002B                     l1821:
  2893     002B  3000               	movlw	0
  2894     002C  1683               	bsf	3,5	;RP0=1, select bank1
  2895     002D  1303               	bcf	3,6	;RP1=0, select bank1
  2896     002E  00BF               	movwf	(ACS712_ReadAC@period_us+3)^(0+128)
  2897     002F  3000               	movlw	0
  2898     0030  00BE               	movwf	(ACS712_ReadAC@period_us+2)^(0+128)
  2899     0031  3041               	movlw	65
  2900     0032  00BD               	movwf	(ACS712_ReadAC@period_us+1)^(0+128)
  2901     0033  301A               	movlw	26
  2902     0034  00BC               	movwf	ACS712_ReadAC@period_us^(0+128)
  2903     0035  2846               	goto	l1829
  2904     0036                     l1823:
  2905     0036  3032               	movlw	50
  2906     0037  0645               	xorwf	ACS712_ReadAC@frequency,w
  2907     0038  1D03               	btfss	3,2
  2908     0039  283B               	goto	u2041
  2909     003A  283C               	goto	u2040
  2910     003B                     u2041:
  2911     003B  282B               	goto	l1821
  2912     003C                     u2040:
  2913     003C                     l1825:
  2914     003C  3000               	movlw	0
  2915     003D  1683               	bsf	3,5	;RP0=1, select bank1
  2916     003E  1303               	bcf	3,6	;RP1=0, select bank1
  2917     003F  00BF               	movwf	(ACS712_ReadAC@period_us+3)^(0+128)
  2918     0040  3000               	movlw	0
  2919     0041  00BE               	movwf	(ACS712_ReadAC@period_us+2)^(0+128)
  2920     0042  304E               	movlw	78
  2921     0043  00BD               	movwf	(ACS712_ReadAC@period_us+1)^(0+128)
  2922     0044  3020               	movlw	32
  2923     0045  00BC               	movwf	ACS712_ReadAC@period_us^(0+128)
  2924     0046                     l1829:
  2925                           
  2926                           ;ACS712.c: 47:     unsigned long start_time = micros();
  2927     0046  158A  27B1  118A   	fcall	_micros
  2928     0049  0875               	movf	?_micros+3,w
  2929     004A  1683               	bsf	3,5	;RP0=1, select bank1
  2930     004B  1303               	bcf	3,6	;RP1=0, select bank1
  2931     004C  00A3               	movwf	(ACS712_ReadAC@start_time+3)^(0+128)
  2932     004D  0874               	movf	?_micros+2,w
  2933     004E  00A2               	movwf	(ACS712_ReadAC@start_time+2)^(0+128)
  2934     004F  0873               	movf	?_micros+1,w
  2935     0050  00A1               	movwf	(ACS712_ReadAC@start_time+1)^(0+128)
  2936     0051  0872               	movf	?_micros,w
  2937     0052  00A0               	movwf	ACS712_ReadAC@start_time^(0+128)
  2938     0053                     l1831:
  2939                           
  2940                           ;ACS712.c: 48:     unsigned long accumulator = 0;
  2941     0053  3000               	movlw	0
  2942     0054  00BB               	movwf	(ACS712_ReadAC@accumulator+3)^(0+128)
  2943     0055  3000               	movlw	0
  2944     0056  00BA               	movwf	(ACS712_ReadAC@accumulator+2)^(0+128)
  2945     0057  3000               	movlw	0
  2946     0058  00B9               	movwf	(ACS712_ReadAC@accumulator+1)^(0+128)
  2947     0059  3000               	movlw	0
  2948     005A  00B8               	movwf	ACS712_ReadAC@accumulator^(0+128)
  2949     005B                     l1833:
  2950                           
  2951                           ;ACS712.c: 49:     unsigned long count = 0;
  2952     005B  3000               	movlw	0
  2953     005C  00C3               	movwf	(ACS712_ReadAC@count+3)^(0+128)
  2954     005D  3000               	movlw	0
  2955     005E  00C2               	movwf	(ACS712_ReadAC@count+2)^(0+128)
  2956     005F  3000               	movlw	0
  2957     0060  00C1               	movwf	(ACS712_ReadAC@count+1)^(0+128)
  2958     0061  3000               	movlw	0
  2959     0062  00C0               	movwf	ACS712_ReadAC@count^(0+128)
  2960     0063                     l1835:
  2961                           
  2962                           ;ACS712.c: 51:     long sample;;ACS712.c: 52:     long zero = (long)sensor->zero_point;
  2963     0063  1283               	bcf	3,5	;RP0=0, select bank0
  2964     0064  1303               	bcf	3,6	;RP1=0, select bank0
  2965     0065  0843               	movf	ACS712_ReadAC@sensor,w
  2966     0066  3E05               	addlw	5
  2967     0067  00C6               	movwf	??_ACS712_ReadAC
  2968     0068  0844               	movf	ACS712_ReadAC@sensor+1,w
  2969     0069  1803               	skipnc
  2970     006A  3E01               	addlw	1
  2971     006B  3E00               	addlw	0
  2972     006C  00C7               	movwf	??_ACS712_ReadAC+1
  2973     006D  0846               	movf	??_ACS712_ReadAC,w
  2974     006E  0084               	movwf	4
  2975     006F  1783               	bsf	3,7
  2976     0070  1C47               	btfss	??_ACS712_ReadAC+1,0
  2977     0071  1383               	bcf	3,7
  2978     0072  0800               	movf	0,w
  2979     0073  00C8               	movwf	??_ACS712_ReadAC+2
  2980     0074  0A84               	incf	4,f
  2981     0075  0800               	movf	0,w
  2982     0076  00C9               	movwf	??_ACS712_ReadAC+3
  2983     0077  0848               	movf	??_ACS712_ReadAC+2,w
  2984     0078  1683               	bsf	3,5	;RP0=1, select bank1
  2985     0079  1303               	bcf	3,6	;RP1=0, select bank1
  2986     007A  00A4               	movwf	ACS712_ReadAC@zero^(0+128)
  2987     007B  1283               	bcf	3,5	;RP0=0, select bank0
  2988     007C  1303               	bcf	3,6	;RP1=0, select bank0
  2989     007D  0849               	movf	??_ACS712_ReadAC+3,w
  2990     007E  1683               	bsf	3,5	;RP0=1, select bank1
  2991     007F  1303               	bcf	3,6	;RP1=0, select bank1
  2992     0080  00A5               	movwf	(ACS712_ReadAC@zero^(0+128)+1)
  2993     0081  01A6               	clrf	(ACS712_ReadAC@zero^(0+128)+2)
  2994     0082  01A7               	clrf	(ACS712_ReadAC@zero^(0+128)+3)
  2995                           
  2996                           ;ACS712.c: 54:     while ((micros() - start_time) < period_us) {
  2997     0083  28DD               	goto	l1845
  2998     0084                     l1837:
  2999                           
  3000                           ;ACS712.c: 55:          sample = (long)ADC_Read(sensor->adc_channel);
  3001     0084  0843               	movf	ACS712_ReadAC@sensor,w
  3002     0085  0084               	movwf	4
  3003     0086  1783               	bsf	3,7
  3004     0087  1C44               	btfss	ACS712_ReadAC@sensor+1,0
  3005     0088  1383               	bcf	3,7
  3006     0089  0800               	movf	0,w
  3007     008A  158A  2635  118A   	fcall	_ADC_Read
  3008     008D  0872               	movf	?_ADC_Read,w
  3009     008E  1683               	bsf	3,5	;RP0=1, select bank1
  3010     008F  1303               	bcf	3,6	;RP1=0, select bank1
  3011     0090  00C4               	movwf	ACS712_ReadAC@sample^(0+128)
  3012     0091  0873               	movf	?_ADC_Read+1,w
  3013     0092  00C5               	movwf	(ACS712_ReadAC@sample^(0+128)+1)
  3014     0093  01C6               	clrf	(ACS712_ReadAC@sample^(0+128)+2)
  3015     0094  01C7               	clrf	(ACS712_ReadAC@sample^(0+128)+3)
  3016     0095                     l1839:
  3017                           
  3018                           ;ACS712.c: 56:          sample -= zero;
  3019     0095  0824               	movf	ACS712_ReadAC@zero^(0+128),w
  3020     0096  02C4               	subwf	ACS712_ReadAC@sample^(0+128),f
  3021     0097  0825               	movf	(ACS712_ReadAC@zero+1)^(0+128),w
  3022     0098  1C03               	skipc
  3023     0099  0F25               	incfsz	(ACS712_ReadAC@zero+1)^(0+128),w
  3024     009A  02C5               	subwf	(ACS712_ReadAC@sample+1)^(0+128),f
  3025     009B  0826               	movf	(ACS712_ReadAC@zero+2)^(0+128),w
  3026     009C  1C03               	skipc
  3027     009D  0F26               	incfsz	(ACS712_ReadAC@zero+2)^(0+128),w
  3028     009E  02C6               	subwf	(ACS712_ReadAC@sample+2)^(0+128),f
  3029     009F  0827               	movf	(ACS712_ReadAC@zero+3)^(0+128),w
  3030     00A0  1C03               	skipc
  3031     00A1  0F27               	incfsz	(ACS712_ReadAC@zero+3)^(0+128),w
  3032     00A2  02C7               	subwf	(ACS712_ReadAC@sample+3)^(0+128),f
  3033     00A3                     l1841:
  3034                           
  3035                           ;ACS712.c: 57:          accumulator += (unsigned long)(sample * sample);
  3036     00A3  0847               	movf	(ACS712_ReadAC@sample+3)^(0+128),w
  3037     00A4  00F5               	movwf	___lmul@multiplier+3
  3038     00A5  0846               	movf	(ACS712_ReadAC@sample+2)^(0+128),w
  3039     00A6  00F4               	movwf	___lmul@multiplier+2
  3040     00A7  0845               	movf	(ACS712_ReadAC@sample+1)^(0+128),w
  3041     00A8  00F3               	movwf	___lmul@multiplier+1
  3042     00A9  0844               	movf	ACS712_ReadAC@sample^(0+128),w
  3043     00AA  00F2               	movwf	___lmul@multiplier
  3044     00AB  0847               	movf	(ACS712_ReadAC@sample+3)^(0+128),w
  3045     00AC  00F9               	movwf	___lmul@multiplicand+3
  3046     00AD  0846               	movf	(ACS712_ReadAC@sample+2)^(0+128),w
  3047     00AE  00F8               	movwf	___lmul@multiplicand+2
  3048     00AF  0845               	movf	(ACS712_ReadAC@sample+1)^(0+128),w
  3049     00B0  00F7               	movwf	___lmul@multiplicand+1
  3050     00B1  0844               	movf	ACS712_ReadAC@sample^(0+128),w
  3051     00B2  00F6               	movwf	___lmul@multiplicand
  3052     00B3  158A  2765  118A   	fcall	___lmul
  3053     00B6  0872               	movf	?___lmul,w
  3054     00B7  1683               	bsf	3,5	;RP0=1, select bank1
  3055     00B8  1303               	bcf	3,6	;RP1=0, select bank1
  3056     00B9  07B8               	addwf	ACS712_ReadAC@accumulator^(0+128),f
  3057     00BA  0873               	movf	?___lmul+1,w
  3058     00BB  1103               	clrz
  3059     00BC  1803               	skipnc
  3060     00BD  3E01               	addlw	1
  3061     00BE  1903               	skipnz
  3062     00BF  28C1               	goto	u2051
  3063     00C0  07B9               	addwf	(ACS712_ReadAC@accumulator+1)^(0+128),f
  3064     00C1                     u2051:
  3065     00C1  0874               	movf	?___lmul+2,w
  3066     00C2  1103               	clrz
  3067     00C3  1803               	skipnc
  3068     00C4  3E01               	addlw	1
  3069     00C5  1903               	skipnz
  3070     00C6  28C8               	goto	u2052
  3071     00C7  07BA               	addwf	(ACS712_ReadAC@accumulator+2)^(0+128),f
  3072     00C8                     u2052:
  3073     00C8  0875               	movf	?___lmul+3,w
  3074     00C9  1103               	clrz
  3075     00CA  1803               	skipnc
  3076     00CB  3E01               	addlw	1
  3077     00CC  1903               	skipnz
  3078     00CD  28CF               	goto	u2053
  3079     00CE  07BB               	addwf	(ACS712_ReadAC@accumulator+3)^(0+128),f
  3080     00CF                     u2053:
  3081     00CF                     l1843:
  3082                           
  3083                           ;ACS712.c: 58:          count++;
  3084     00CF  3001               	movlw	1
  3085     00D0  07C0               	addwf	ACS712_ReadAC@count^(0+128),f
  3086     00D1  3000               	movlw	0
  3087     00D2  1803               	skipnc
  3088     00D3  3001               	movlw	1
  3089     00D4  07C1               	addwf	(ACS712_ReadAC@count+1)^(0+128),f
  3090     00D5  3000               	movlw	0
  3091     00D6  1803               	skipnc
  3092     00D7  3001               	movlw	1
  3093     00D8  07C2               	addwf	(ACS712_ReadAC@count+2)^(0+128),f
  3094     00D9  3000               	movlw	0
  3095     00DA  1803               	skipnc
  3096     00DB  3001               	movlw	1
  3097     00DC  07C3               	addwf	(ACS712_ReadAC@count+3)^(0+128),f
  3098     00DD                     l1845:
  3099                           
  3100                           ;ACS712.c: 54:     while ((micros() - start_time) < period_us) {
  3101     00DD  158A  27B1  118A   	fcall	_micros
  3102     00E0  0872               	movf	?_micros,w
  3103     00E1  1283               	bcf	3,5	;RP0=0, select bank0
  3104     00E2  1303               	bcf	3,6	;RP1=0, select bank0
  3105     00E3  00C6               	movwf	??_ACS712_ReadAC
  3106     00E4  0873               	movf	?_micros+1,w
  3107     00E5  00C7               	movwf	??_ACS712_ReadAC+1
  3108     00E6  0874               	movf	?_micros+2,w
  3109     00E7  00C8               	movwf	??_ACS712_ReadAC+2
  3110     00E8  0875               	movf	?_micros+3,w
  3111     00E9  00C9               	movwf	??_ACS712_ReadAC+3
  3112     00EA  1683               	bsf	3,5	;RP0=1, select bank1
  3113     00EB  1303               	bcf	3,6	;RP1=0, select bank1
  3114     00EC  0820               	movf	ACS712_ReadAC@start_time^(0+128),w
  3115     00ED  1283               	bcf	3,5	;RP0=0, select bank0
  3116     00EE  1303               	bcf	3,6	;RP1=0, select bank0
  3117     00EF  02C6               	subwf	??_ACS712_ReadAC,f
  3118     00F0  1683               	bsf	3,5	;RP0=1, select bank1
  3119     00F1  1303               	bcf	3,6	;RP1=0, select bank1
  3120     00F2  0821               	movf	(ACS712_ReadAC@start_time+1)^(0+128),w
  3121     00F3  1C03               	skipc
  3122     00F4  0F21               	incfsz	(ACS712_ReadAC@start_time+1)^(0+128),w
  3123     00F5  28F7               	goto	u2061
  3124     00F6  28FA               	goto	u2062
  3125     00F7                     u2061:
  3126     00F7  1283               	bcf	3,5	;RP0=0, select bank0
  3127     00F8  1303               	bcf	3,6	;RP1=0, select bank0
  3128     00F9  02C7               	subwf	??_ACS712_ReadAC+1,f
  3129     00FA                     u2062:
  3130     00FA  1683               	bsf	3,5	;RP0=1, select bank1
  3131     00FB  1303               	bcf	3,6	;RP1=0, select bank1
  3132     00FC  0822               	movf	(ACS712_ReadAC@start_time+2)^(0+128),w
  3133     00FD  1C03               	skipc
  3134     00FE  0F22               	incfsz	(ACS712_ReadAC@start_time+2)^(0+128),w
  3135     00FF  2901               	goto	u2063
  3136     0100  2904               	goto	u2064
  3137     0101                     u2063:
  3138     0101  1283               	bcf	3,5	;RP0=0, select bank0
  3139     0102  1303               	bcf	3,6	;RP1=0, select bank0
  3140     0103  02C8               	subwf	??_ACS712_ReadAC+2,f
  3141     0104                     u2064:
  3142     0104  1683               	bsf	3,5	;RP0=1, select bank1
  3143     0105  1303               	bcf	3,6	;RP1=0, select bank1
  3144     0106  0823               	movf	(ACS712_ReadAC@start_time+3)^(0+128),w
  3145     0107  1C03               	skipc
  3146     0108  0F23               	incfsz	(ACS712_ReadAC@start_time+3)^(0+128),w
  3147     0109  290B               	goto	u2065
  3148     010A  290E               	goto	u2066
  3149     010B                     u2065:
  3150     010B  1283               	bcf	3,5	;RP0=0, select bank0
  3151     010C  1303               	bcf	3,6	;RP1=0, select bank0
  3152     010D  02C9               	subwf	??_ACS712_ReadAC+3,f
  3153     010E                     u2066:
  3154     010E  1683               	bsf	3,5	;RP0=1, select bank1
  3155     010F  1303               	bcf	3,6	;RP1=0, select bank1
  3156     0110  1283               	bcf	3,5	;RP0=0, select bank0
  3157     0111  1303               	bcf	3,6	;RP1=0, select bank0
  3158     0112  1683               	bsf	3,5	;RP0=1, select bank1
  3159     0113  1303               	bcf	3,6	;RP1=0, select bank1
  3160     0114  083F               	movf	(ACS712_ReadAC@period_us+3)^(0+128),w
  3161     0115  1283               	bcf	3,5	;RP0=0, select bank0
  3162     0116  1303               	bcf	3,6	;RP1=0, select bank0
  3163     0117  0249               	subwf	??_ACS712_ReadAC+3,w
  3164     0118  1D03               	skipz
  3165     0119  2930               	goto	u2075
  3166     011A  1683               	bsf	3,5	;RP0=1, select bank1
  3167     011B  1303               	bcf	3,6	;RP1=0, select bank1
  3168     011C  083E               	movf	(ACS712_ReadAC@period_us+2)^(0+128),w
  3169     011D  1283               	bcf	3,5	;RP0=0, select bank0
  3170     011E  1303               	bcf	3,6	;RP1=0, select bank0
  3171     011F  0248               	subwf	??_ACS712_ReadAC+2,w
  3172     0120  1D03               	skipz
  3173     0121  2930               	goto	u2075
  3174     0122  1683               	bsf	3,5	;RP0=1, select bank1
  3175     0123  1303               	bcf	3,6	;RP1=0, select bank1
  3176     0124  083D               	movf	(ACS712_ReadAC@period_us+1)^(0+128),w
  3177     0125  1283               	bcf	3,5	;RP0=0, select bank0
  3178     0126  1303               	bcf	3,6	;RP1=0, select bank0
  3179     0127  0247               	subwf	??_ACS712_ReadAC+1,w
  3180     0128  1D03               	skipz
  3181     0129  2930               	goto	u2075
  3182     012A  1683               	bsf	3,5	;RP0=1, select bank1
  3183     012B  1303               	bcf	3,6	;RP1=0, select bank1
  3184     012C  083C               	movf	ACS712_ReadAC@period_us^(0+128),w
  3185     012D  1283               	bcf	3,5	;RP0=0, select bank0
  3186     012E  1303               	bcf	3,6	;RP1=0, select bank0
  3187     012F  0246               	subwf	??_ACS712_ReadAC,w
  3188     0130                     u2075:
  3189     0130  1C03               	skipc
  3190     0131  2933               	goto	u2071
  3191     0132  2934               	goto	u2070
  3192     0133                     u2071:
  3193     0133  2884               	goto	l1837
  3194     0134                     u2070:
  3195     0134                     l1847:
  3196                           
  3197                           ;ACS712.c: 61:     if (count == 0) return 0;
  3198     0134  1683               	bsf	3,5	;RP0=1, select bank1
  3199     0135  1303               	bcf	3,6	;RP1=0, select bank1
  3200     0136  0843               	movf	(ACS712_ReadAC@count+3)^(0+128),w
  3201     0137  0442               	iorwf	(ACS712_ReadAC@count+2)^(0+128),w
  3202     0138  0441               	iorwf	(ACS712_ReadAC@count+1)^(0+128),w
  3203     0139  0440               	iorwf	ACS712_ReadAC@count^(0+128),w
  3204     013A  1D03               	skipz
  3205     013B  293D               	goto	u2081
  3206     013C  293E               	goto	u2080
  3207     013D                     u2081:
  3208     013D  2943               	goto	l1853
  3209     013E                     u2080:
  3210     013E                     l1849:
  3211     013E  1283               	bcf	3,5	;RP0=0, select bank0
  3212     013F  1303               	bcf	3,6	;RP1=0, select bank0
  3213     0140  01C3               	clrf	?_ACS712_ReadAC
  3214     0141  01C4               	clrf	?_ACS712_ReadAC+1
  3215     0142  2A82               	goto	l32
  3216     0143                     l1853:
  3217                           
  3218                           ;ACS712.c: 64:     unsigned long avg_sq = accumulator / count;
  3219     0143  0843               	movf	(ACS712_ReadAC@count+3)^(0+128),w
  3220     0144  1283               	bcf	3,5	;RP0=0, select bank0
  3221     0145  1303               	bcf	3,6	;RP1=0, select bank0
  3222     0146  00A8               	movwf	___lldiv@divisor+3
  3223     0147  1683               	bsf	3,5	;RP0=1, select bank1
  3224     0148  1303               	bcf	3,6	;RP1=0, select bank1
  3225     0149  0842               	movf	(ACS712_ReadAC@count+2)^(0+128),w
  3226     014A  1283               	bcf	3,5	;RP0=0, select bank0
  3227     014B  1303               	bcf	3,6	;RP1=0, select bank0
  3228     014C  00A7               	movwf	___lldiv@divisor+2
  3229     014D  1683               	bsf	3,5	;RP0=1, select bank1
  3230     014E  1303               	bcf	3,6	;RP1=0, select bank1
  3231     014F  0841               	movf	(ACS712_ReadAC@count+1)^(0+128),w
  3232     0150  1283               	bcf	3,5	;RP0=0, select bank0
  3233     0151  1303               	bcf	3,6	;RP1=0, select bank0
  3234     0152  00A6               	movwf	___lldiv@divisor+1
  3235     0153  1683               	bsf	3,5	;RP0=1, select bank1
  3236     0154  1303               	bcf	3,6	;RP1=0, select bank1
  3237     0155  0840               	movf	ACS712_ReadAC@count^(0+128),w
  3238     0156  1283               	bcf	3,5	;RP0=0, select bank0
  3239     0157  1303               	bcf	3,6	;RP1=0, select bank0
  3240     0158  00A5               	movwf	___lldiv@divisor
  3241     0159  1683               	bsf	3,5	;RP0=1, select bank1
  3242     015A  1303               	bcf	3,6	;RP1=0, select bank1
  3243     015B  083B               	movf	(ACS712_ReadAC@accumulator+3)^(0+128),w
  3244     015C  1283               	bcf	3,5	;RP0=0, select bank0
  3245     015D  1303               	bcf	3,6	;RP1=0, select bank0
  3246     015E  00AC               	movwf	___lldiv@dividend+3
  3247     015F  1683               	bsf	3,5	;RP0=1, select bank1
  3248     0160  1303               	bcf	3,6	;RP1=0, select bank1
  3249     0161  083A               	movf	(ACS712_ReadAC@accumulator+2)^(0+128),w
  3250     0162  1283               	bcf	3,5	;RP0=0, select bank0
  3251     0163  1303               	bcf	3,6	;RP1=0, select bank0
  3252     0164  00AB               	movwf	___lldiv@dividend+2
  3253     0165  1683               	bsf	3,5	;RP0=1, select bank1
  3254     0166  1303               	bcf	3,6	;RP1=0, select bank1
  3255     0167  0839               	movf	(ACS712_ReadAC@accumulator+1)^(0+128),w
  3256     0168  1283               	bcf	3,5	;RP0=0, select bank0
  3257     0169  1303               	bcf	3,6	;RP1=0, select bank0
  3258     016A  00AA               	movwf	___lldiv@dividend+1
  3259     016B  1683               	bsf	3,5	;RP0=1, select bank1
  3260     016C  1303               	bcf	3,6	;RP1=0, select bank1
  3261     016D  0838               	movf	ACS712_ReadAC@accumulator^(0+128),w
  3262     016E  1283               	bcf	3,5	;RP0=0, select bank0
  3263     016F  1303               	bcf	3,6	;RP1=0, select bank0
  3264     0170  00A9               	movwf	___lldiv@dividend
  3265     0171  118A  2668  118A   	fcall	___lldiv
  3266     0174  1283               	bcf	3,5	;RP0=0, select bank0
  3267     0175  1303               	bcf	3,6	;RP1=0, select bank0
  3268     0176  0828               	movf	?___lldiv+3,w
  3269     0177  1683               	bsf	3,5	;RP0=1, select bank1
  3270     0178  1303               	bcf	3,6	;RP1=0, select bank1
  3271     0179  00AB               	movwf	(ACS712_ReadAC@avg_sq+3)^(0+128)
  3272     017A  1283               	bcf	3,5	;RP0=0, select bank0
  3273     017B  1303               	bcf	3,6	;RP1=0, select bank0
  3274     017C  0827               	movf	?___lldiv+2,w
  3275     017D  1683               	bsf	3,5	;RP0=1, select bank1
  3276     017E  1303               	bcf	3,6	;RP1=0, select bank1
  3277     017F  00AA               	movwf	(ACS712_ReadAC@avg_sq+2)^(0+128)
  3278     0180  1283               	bcf	3,5	;RP0=0, select bank0
  3279     0181  1303               	bcf	3,6	;RP1=0, select bank0
  3280     0182  0826               	movf	?___lldiv+1,w
  3281     0183  1683               	bsf	3,5	;RP0=1, select bank1
  3282     0184  1303               	bcf	3,6	;RP1=0, select bank1
  3283     0185  00A9               	movwf	(ACS712_ReadAC@avg_sq+1)^(0+128)
  3284     0186  1283               	bcf	3,5	;RP0=0, select bank0
  3285     0187  1303               	bcf	3,6	;RP1=0, select bank0
  3286     0188  0825               	movf	?___lldiv,w
  3287     0189  1683               	bsf	3,5	;RP0=1, select bank1
  3288     018A  1303               	bcf	3,6	;RP1=0, select bank1
  3289     018B  00A8               	movwf	ACS712_ReadAC@avg_sq^(0+128)
  3290                           
  3291                           ;ACS712.c: 65:     unsigned long rms_adc = isqrt(avg_sq);
  3292     018C  082B               	movf	(ACS712_ReadAC@avg_sq+3)^(0+128),w
  3293     018D  1283               	bcf	3,5	;RP0=0, select bank0
  3294     018E  1303               	bcf	3,6	;RP1=0, select bank0
  3295     018F  00B6               	movwf	isqrt@n+3
  3296     0190  1683               	bsf	3,5	;RP0=1, select bank1
  3297     0191  1303               	bcf	3,6	;RP1=0, select bank1
  3298     0192  082A               	movf	(ACS712_ReadAC@avg_sq+2)^(0+128),w
  3299     0193  1283               	bcf	3,5	;RP0=0, select bank0
  3300     0194  1303               	bcf	3,6	;RP1=0, select bank0
  3301     0195  00B5               	movwf	isqrt@n+2
  3302     0196  1683               	bsf	3,5	;RP0=1, select bank1
  3303     0197  1303               	bcf	3,6	;RP1=0, select bank1
  3304     0198  0829               	movf	(ACS712_ReadAC@avg_sq+1)^(0+128),w
  3305     0199  1283               	bcf	3,5	;RP0=0, select bank0
  3306     019A  1303               	bcf	3,6	;RP1=0, select bank0
  3307     019B  00B4               	movwf	isqrt@n+1
  3308     019C  1683               	bsf	3,5	;RP0=1, select bank1
  3309     019D  1303               	bcf	3,6	;RP1=0, select bank1
  3310     019E  0828               	movf	ACS712_ReadAC@avg_sq^(0+128),w
  3311     019F  1283               	bcf	3,5	;RP0=0, select bank0
  3312     01A0  1303               	bcf	3,6	;RP1=0, select bank0
  3313     01A1  00B3               	movwf	isqrt@n
  3314     01A2  118A  24E2  118A   	fcall	_isqrt
  3315     01A5  1283               	bcf	3,5	;RP0=0, select bank0
  3316     01A6  1303               	bcf	3,6	;RP1=0, select bank0
  3317     01A7  0836               	movf	?_isqrt+3,w
  3318     01A8  1683               	bsf	3,5	;RP0=1, select bank1
  3319     01A9  1303               	bcf	3,6	;RP1=0, select bank1
  3320     01AA  00AF               	movwf	(ACS712_ReadAC@rms_adc+3)^(0+128)
  3321     01AB  1283               	bcf	3,5	;RP0=0, select bank0
  3322     01AC  1303               	bcf	3,6	;RP1=0, select bank0
  3323     01AD  0835               	movf	?_isqrt+2,w
  3324     01AE  1683               	bsf	3,5	;RP0=1, select bank1
  3325     01AF  1303               	bcf	3,6	;RP1=0, select bank1
  3326     01B0  00AE               	movwf	(ACS712_ReadAC@rms_adc+2)^(0+128)
  3327     01B1  1283               	bcf	3,5	;RP0=0, select bank0
  3328     01B2  1303               	bcf	3,6	;RP1=0, select bank0
  3329     01B3  0834               	movf	?_isqrt+1,w
  3330     01B4  1683               	bsf	3,5	;RP0=1, select bank1
  3331     01B5  1303               	bcf	3,6	;RP1=0, select bank1
  3332     01B6  00AD               	movwf	(ACS712_ReadAC@rms_adc+1)^(0+128)
  3333     01B7  1283               	bcf	3,5	;RP0=0, select bank0
  3334     01B8  1303               	bcf	3,6	;RP1=0, select bank0
  3335     01B9  0833               	movf	?_isqrt,w
  3336     01BA  1683               	bsf	3,5	;RP0=1, select bank1
  3337     01BB  1303               	bcf	3,6	;RP1=0, select bank1
  3338     01BC  00AC               	movwf	ACS712_ReadAC@rms_adc^(0+128)
  3339     01BD                     l1855:
  3340                           
  3341                           ;ACS712.c: 70:     unsigned long voltage_rms_mv = (rms_adc * (unsigned long)sensor->volt
      +                          age_reference_mv) / sensor->adc_resolution;
  3342     01BD  1283               	bcf	3,5	;RP0=0, select bank0
  3343     01BE  1303               	bcf	3,6	;RP1=0, select bank0
  3344     01BF  0843               	movf	ACS712_ReadAC@sensor,w
  3345     01C0  3E03               	addlw	3
  3346     01C1  00C6               	movwf	??_ACS712_ReadAC
  3347     01C2  0844               	movf	ACS712_ReadAC@sensor+1,w
  3348     01C3  1803               	skipnc
  3349     01C4  3E01               	addlw	1
  3350     01C5  3E00               	addlw	0
  3351     01C6  00C7               	movwf	??_ACS712_ReadAC+1
  3352     01C7  0846               	movf	??_ACS712_ReadAC,w
  3353     01C8  0084               	movwf	4
  3354     01C9  1783               	bsf	3,7
  3355     01CA  1C47               	btfss	??_ACS712_ReadAC+1,0
  3356     01CB  1383               	bcf	3,7
  3357     01CC  0800               	movf	0,w
  3358     01CD  00C8               	movwf	??_ACS712_ReadAC+2
  3359     01CE  0A84               	incf	4,f
  3360     01CF  0800               	movf	0,w
  3361     01D0  00C9               	movwf	??_ACS712_ReadAC+3
  3362     01D1  0848               	movf	??_ACS712_ReadAC+2,w
  3363     01D2  00A5               	movwf	___lldiv@divisor
  3364     01D3  0849               	movf	??_ACS712_ReadAC+3,w
  3365     01D4  00A6               	movwf	___lldiv@divisor+1
  3366     01D5  3000               	movlw	0
  3367     01D6  1BA6               	btfsc	___lldiv@divisor+1,7
  3368     01D7  30FF               	movlw	255
  3369     01D8  00A7               	movwf	___lldiv@divisor+2
  3370     01D9  00A8               	movwf	___lldiv@divisor+3
  3371     01DA  0843               	movf	ACS712_ReadAC@sensor,w
  3372     01DB  3E01               	addlw	1
  3373     01DC  00CA               	movwf	??_ACS712_ReadAC+4
  3374     01DD  0844               	movf	ACS712_ReadAC@sensor+1,w
  3375     01DE  1803               	skipnc
  3376     01DF  3E01               	addlw	1
  3377     01E0  3E00               	addlw	0
  3378     01E1  00CB               	movwf	??_ACS712_ReadAC+5
  3379     01E2  084A               	movf	??_ACS712_ReadAC+4,w
  3380     01E3  0084               	movwf	4
  3381     01E4  1783               	bsf	3,7
  3382     01E5  1C4B               	btfss	??_ACS712_ReadAC+5,0
  3383     01E6  1383               	bcf	3,7
  3384     01E7  0800               	movf	0,w
  3385     01E8  00CC               	movwf	??_ACS712_ReadAC+6
  3386     01E9  0A84               	incf	4,f
  3387     01EA  0800               	movf	0,w
  3388     01EB  00CD               	movwf	??_ACS712_ReadAC+7
  3389     01EC  084C               	movf	??_ACS712_ReadAC+6,w
  3390     01ED  00F2               	movwf	___lmul@multiplier
  3391     01EE  084D               	movf	??_ACS712_ReadAC+7,w
  3392     01EF  00F3               	movwf	___lmul@multiplier+1
  3393     01F0  01F4               	clrf	___lmul@multiplier+2
  3394     01F1  01F5               	clrf	___lmul@multiplier+3
  3395     01F2  1683               	bsf	3,5	;RP0=1, select bank1
  3396     01F3  1303               	bcf	3,6	;RP1=0, select bank1
  3397     01F4  082F               	movf	(ACS712_ReadAC@rms_adc+3)^(0+128),w
  3398     01F5  00F9               	movwf	___lmul@multiplicand+3
  3399     01F6  082E               	movf	(ACS712_ReadAC@rms_adc+2)^(0+128),w
  3400     01F7  00F8               	movwf	___lmul@multiplicand+2
  3401     01F8  082D               	movf	(ACS712_ReadAC@rms_adc+1)^(0+128),w
  3402     01F9  00F7               	movwf	___lmul@multiplicand+1
  3403     01FA  082C               	movf	ACS712_ReadAC@rms_adc^(0+128),w
  3404     01FB  00F6               	movwf	___lmul@multiplicand
  3405     01FC  158A  2765  118A   	fcall	___lmul
  3406     01FF  0875               	movf	?___lmul+3,w
  3407     0200  1283               	bcf	3,5	;RP0=0, select bank0
  3408     0201  1303               	bcf	3,6	;RP1=0, select bank0
  3409     0202  00AC               	movwf	___lldiv@dividend+3
  3410     0203  0874               	movf	?___lmul+2,w
  3411     0204  00AB               	movwf	___lldiv@dividend+2
  3412     0205  0873               	movf	?___lmul+1,w
  3413     0206  00AA               	movwf	___lldiv@dividend+1
  3414     0207  0872               	movf	?___lmul,w
  3415     0208  00A9               	movwf	___lldiv@dividend
  3416     0209  118A  2668  118A   	fcall	___lldiv
  3417     020C  1283               	bcf	3,5	;RP0=0, select bank0
  3418     020D  1303               	bcf	3,6	;RP1=0, select bank0
  3419     020E  0828               	movf	?___lldiv+3,w
  3420     020F  1683               	bsf	3,5	;RP0=1, select bank1
  3421     0210  1303               	bcf	3,6	;RP1=0, select bank1
  3422     0211  00B3               	movwf	(ACS712_ReadAC@voltage_rms_mv+3)^(0+128)
  3423     0212  1283               	bcf	3,5	;RP0=0, select bank0
  3424     0213  1303               	bcf	3,6	;RP1=0, select bank0
  3425     0214  0827               	movf	?___lldiv+2,w
  3426     0215  1683               	bsf	3,5	;RP0=1, select bank1
  3427     0216  1303               	bcf	3,6	;RP1=0, select bank1
  3428     0217  00B2               	movwf	(ACS712_ReadAC@voltage_rms_mv+2)^(0+128)
  3429     0218  1283               	bcf	3,5	;RP0=0, select bank0
  3430     0219  1303               	bcf	3,6	;RP1=0, select bank0
  3431     021A  0826               	movf	?___lldiv+1,w
  3432     021B  1683               	bsf	3,5	;RP0=1, select bank1
  3433     021C  1303               	bcf	3,6	;RP1=0, select bank1
  3434     021D  00B1               	movwf	(ACS712_ReadAC@voltage_rms_mv+1)^(0+128)
  3435     021E  1283               	bcf	3,5	;RP0=0, select bank0
  3436     021F  1303               	bcf	3,6	;RP1=0, select bank0
  3437     0220  0825               	movf	?___lldiv,w
  3438     0221  1683               	bsf	3,5	;RP0=1, select bank1
  3439     0222  1303               	bcf	3,6	;RP1=0, select bank1
  3440     0223  00B0               	movwf	ACS712_ReadAC@voltage_rms_mv^(0+128)
  3441     0224                     l1857:
  3442                           
  3443                           ;ACS712.c: 81:     unsigned long current_mA = (voltage_rms_mv * 1000) / sensor->sensitiv
      +                          ity_mV_A;
  3444     0224  1283               	bcf	3,5	;RP0=0, select bank0
  3445     0225  1303               	bcf	3,6	;RP1=0, select bank0
  3446     0226  0843               	movf	ACS712_ReadAC@sensor,w
  3447     0227  3E07               	addlw	7
  3448     0228  00C6               	movwf	??_ACS712_ReadAC
  3449     0229  0844               	movf	ACS712_ReadAC@sensor+1,w
  3450     022A  1803               	skipnc
  3451     022B  3E01               	addlw	1
  3452     022C  3E00               	addlw	0
  3453     022D  00C7               	movwf	??_ACS712_ReadAC+1
  3454     022E  0846               	movf	??_ACS712_ReadAC,w
  3455     022F  0084               	movwf	4
  3456     0230  1783               	bsf	3,7
  3457     0231  1C47               	btfss	??_ACS712_ReadAC+1,0
  3458     0232  1383               	bcf	3,7
  3459     0233  0800               	movf	0,w
  3460     0234  00C8               	movwf	??_ACS712_ReadAC+2
  3461     0235  0A84               	incf	4,f
  3462     0236  0800               	movf	0,w
  3463     0237  00C9               	movwf	??_ACS712_ReadAC+3
  3464     0238  0848               	movf	??_ACS712_ReadAC+2,w
  3465     0239  00A5               	movwf	___lldiv@divisor
  3466     023A  0849               	movf	??_ACS712_ReadAC+3,w
  3467     023B  00A6               	movwf	___lldiv@divisor+1
  3468     023C  01A7               	clrf	___lldiv@divisor+2
  3469     023D  01A8               	clrf	___lldiv@divisor+3
  3470     023E  1683               	bsf	3,5	;RP0=1, select bank1
  3471     023F  1303               	bcf	3,6	;RP1=0, select bank1
  3472     0240  0833               	movf	(ACS712_ReadAC@voltage_rms_mv+3)^(0+128),w
  3473     0241  00F5               	movwf	___lmul@multiplier+3
  3474     0242  0832               	movf	(ACS712_ReadAC@voltage_rms_mv+2)^(0+128),w
  3475     0243  00F4               	movwf	___lmul@multiplier+2
  3476     0244  0831               	movf	(ACS712_ReadAC@voltage_rms_mv+1)^(0+128),w
  3477     0245  00F3               	movwf	___lmul@multiplier+1
  3478     0246  0830               	movf	ACS712_ReadAC@voltage_rms_mv^(0+128),w
  3479     0247  00F2               	movwf	___lmul@multiplier
  3480     0248  3000               	movlw	0
  3481     0249  00F9               	movwf	___lmul@multiplicand+3
  3482     024A  3000               	movlw	0
  3483     024B  00F8               	movwf	___lmul@multiplicand+2
  3484     024C  3003               	movlw	3
  3485     024D  00F7               	movwf	___lmul@multiplicand+1
  3486     024E  30E8               	movlw	232
  3487     024F  00F6               	movwf	___lmul@multiplicand
  3488     0250  158A  2765  118A   	fcall	___lmul
  3489     0253  0875               	movf	?___lmul+3,w
  3490     0254  1283               	bcf	3,5	;RP0=0, select bank0
  3491     0255  1303               	bcf	3,6	;RP1=0, select bank0
  3492     0256  00AC               	movwf	___lldiv@dividend+3
  3493     0257  0874               	movf	?___lmul+2,w
  3494     0258  00AB               	movwf	___lldiv@dividend+2
  3495     0259  0873               	movf	?___lmul+1,w
  3496     025A  00AA               	movwf	___lldiv@dividend+1
  3497     025B  0872               	movf	?___lmul,w
  3498     025C  00A9               	movwf	___lldiv@dividend
  3499     025D  118A  2668  118A   	fcall	___lldiv
  3500     0260  1283               	bcf	3,5	;RP0=0, select bank0
  3501     0261  1303               	bcf	3,6	;RP1=0, select bank0
  3502     0262  0828               	movf	?___lldiv+3,w
  3503     0263  1683               	bsf	3,5	;RP0=1, select bank1
  3504     0264  1303               	bcf	3,6	;RP1=0, select bank1
  3505     0265  00B7               	movwf	(ACS712_ReadAC@current_mA+3)^(0+128)
  3506     0266  1283               	bcf	3,5	;RP0=0, select bank0
  3507     0267  1303               	bcf	3,6	;RP1=0, select bank0
  3508     0268  0827               	movf	?___lldiv+2,w
  3509     0269  1683               	bsf	3,5	;RP0=1, select bank1
  3510     026A  1303               	bcf	3,6	;RP1=0, select bank1
  3511     026B  00B6               	movwf	(ACS712_ReadAC@current_mA+2)^(0+128)
  3512     026C  1283               	bcf	3,5	;RP0=0, select bank0
  3513     026D  1303               	bcf	3,6	;RP1=0, select bank0
  3514     026E  0826               	movf	?___lldiv+1,w
  3515     026F  1683               	bsf	3,5	;RP0=1, select bank1
  3516     0270  1303               	bcf	3,6	;RP1=0, select bank1
  3517     0271  00B5               	movwf	(ACS712_ReadAC@current_mA+1)^(0+128)
  3518     0272  1283               	bcf	3,5	;RP0=0, select bank0
  3519     0273  1303               	bcf	3,6	;RP1=0, select bank0
  3520     0274  0825               	movf	?___lldiv,w
  3521     0275  1683               	bsf	3,5	;RP0=1, select bank1
  3522     0276  1303               	bcf	3,6	;RP1=0, select bank1
  3523     0277  00B4               	movwf	ACS712_ReadAC@current_mA^(0+128)
  3524     0278                     l1859:
  3525                           
  3526                           ;ACS712.c: 83:     return (unsigned int)current_mA;
  3527     0278  0835               	movf	(ACS712_ReadAC@current_mA+1)^(0+128),w
  3528     0279  1283               	bcf	3,5	;RP0=0, select bank0
  3529     027A  1303               	bcf	3,6	;RP1=0, select bank0
  3530     027B  00C4               	movwf	?_ACS712_ReadAC+1
  3531     027C  1683               	bsf	3,5	;RP0=1, select bank1
  3532     027D  1303               	bcf	3,6	;RP1=0, select bank1
  3533     027E  0834               	movf	ACS712_ReadAC@current_mA^(0+128),w
  3534     027F  1283               	bcf	3,5	;RP0=0, select bank0
  3535     0280  1303               	bcf	3,6	;RP1=0, select bank0
  3536     0281  00C3               	movwf	?_ACS712_ReadAC
  3537     0282                     l32:
  3538     0282  0008               	return
  3539     0283                     __end_of_ACS712_ReadAC:
  3540                           
  3541                           	psect	text13
  3542     0FB1                     __ptext13:	
  3543 ;; *************** function _micros *****************
  3544 ;; Defined at:
  3545 ;;		line 40 in file "Timer_lib.c"
  3546 ;; Parameters:    Size  Location     Type
  3547 ;;		None
  3548 ;; Auto vars:     Size  Location     Type
  3549 ;;  micros_now      4    0[BANK0 ] unsigned long 
  3550 ;;  tmr_snapshot    1    4[BANK0 ] unsigned char 
  3551 ;; Return value:  Size  Location     Type
  3552 ;;                  4    2[COMMON] unsigned long 
  3553 ;; Registers used:
  3554 ;;		wreg, status,2, status,0
  3555 ;; Tracked objects:
  3556 ;;		On entry : 0/0
  3557 ;;		On exit  : 0/0
  3558 ;;		Unchanged: 0/0
  3559 ;; Data sizes:     COMMON   BANK0   BANK1   BANK3   BANK2
  3560 ;;      Params:         4       0       0       0       0
  3561 ;;      Locals:         0       5       0       0       0
  3562 ;;      Temps:          1       0       0       0       0
  3563 ;;      Totals:         5       5       0       0       0
  3564 ;;Total ram usage:       10 bytes
  3565 ;; Hardware stack levels used: 1
  3566 ;; Hardware stack levels required when called: 1
  3567 ;; This function calls:
  3568 ;;		Nothing
  3569 ;; This function is called by:
  3570 ;;		_ACS712_ReadAC
  3571 ;;		_millis
  3572 ;; This function uses a non-reentrant model
  3573 ;;
  3574                           
  3575     0FB1                     _micros:	
  3576                           ;psect for function _micros
  3577                           
  3578     0FB1                     l203:	
  3579                           ;incstack = 0
  3580                           ; Regs used in _micros: [wreg+status,2+status,0]
  3581                           ;Timer_lib.c: 41:     unsigned long micros_now;;Timer_lib.c: 42:     unsigned char tmr_s
      +                          napshot;;Timer_lib.c: 44:     do {
  3582                           
  3583     0FB1                     l1677:
  3584                           
  3585                           ;Timer_lib.c: 45:         tmr_snapshot = TMR0;
  3586     0FB1  1283               	bcf	3,5	;RP0=0, select bank0
  3587     0FB2  1303               	bcf	3,6	;RP1=0, select bank0
  3588     0FB3  0801               	movf	1,w	;volatile
  3589     0FB4  00A4               	movwf	micros@tmr_snapshot
  3590                           
  3591                           ;Timer_lib.c: 46:         micros_now = micros_counter;
  3592     0FB5  1683               	bsf	3,5	;RP0=1, select bank1
  3593     0FB6  1303               	bcf	3,6	;RP1=0, select bank1
  3594     0FB7  084B               	movf	(_micros_counter+3)^(0+128),w	;volatile
  3595     0FB8  1283               	bcf	3,5	;RP0=0, select bank0
  3596     0FB9  1303               	bcf	3,6	;RP1=0, select bank0
  3597     0FBA  00A3               	movwf	micros@micros_now+3
  3598     0FBB  1683               	bsf	3,5	;RP0=1, select bank1
  3599     0FBC  1303               	bcf	3,6	;RP1=0, select bank1
  3600     0FBD  084A               	movf	(_micros_counter+2)^(0+128),w	;volatile
  3601     0FBE  1283               	bcf	3,5	;RP0=0, select bank0
  3602     0FBF  1303               	bcf	3,6	;RP1=0, select bank0
  3603     0FC0  00A2               	movwf	micros@micros_now+2
  3604     0FC1  1683               	bsf	3,5	;RP0=1, select bank1
  3605     0FC2  1303               	bcf	3,6	;RP1=0, select bank1
  3606     0FC3  0849               	movf	(_micros_counter+1)^(0+128),w	;volatile
  3607     0FC4  1283               	bcf	3,5	;RP0=0, select bank0
  3608     0FC5  1303               	bcf	3,6	;RP1=0, select bank0
  3609     0FC6  00A1               	movwf	micros@micros_now+1
  3610     0FC7  1683               	bsf	3,5	;RP0=1, select bank1
  3611     0FC8  1303               	bcf	3,6	;RP1=0, select bank1
  3612     0FC9  0848               	movf	_micros_counter^(0+128),w	;volatile
  3613     0FCA  1283               	bcf	3,5	;RP0=0, select bank0
  3614     0FCB  1303               	bcf	3,6	;RP1=0, select bank0
  3615     0FCC  00A0               	movwf	micros@micros_now
  3616                           
  3617                           ;Timer_lib.c: 47:     } while (TMR0 < tmr_snapshot);
  3618     0FCD  0824               	movf	micros@tmr_snapshot,w
  3619     0FCE  0201               	subwf	1,w	;volatile
  3620     0FCF  1C03               	skipc
  3621     0FD0  2FD2               	goto	u1741
  3622     0FD1  2FD3               	goto	u1740
  3623     0FD2                     u1741:
  3624     0FD2  2FB1               	goto	l203
  3625     0FD3                     u1740:
  3626     0FD3                     l1679:
  3627                           
  3628                           ;Timer_lib.c: 50:     if (current_freq_mhz == 8) {
  3629     0FD3  3008               	movlw	8
  3630     0FD4  067B               	xorwf	_current_freq_mhz,w	;volatile
  3631     0FD5  1D03               	btfss	3,2
  3632     0FD6  2FD8               	goto	u1751
  3633     0FD7  2FD9               	goto	u1750
  3634     0FD8                     u1751:
  3635     0FD8  2FEE               	goto	l1687
  3636     0FD9                     u1750:
  3637     0FD9                     l1681:
  3638                           
  3639                           ;Timer_lib.c: 52:         return micros_now + (tmr_snapshot >> 1);
  3640     0FD9  0824               	movf	micros@tmr_snapshot,w
  3641     0FDA  00F6               	movwf	??_micros
  3642     0FDB  1003               	clrc
  3643     0FDC  0C76               	rrf	??_micros,w
  3644     0FDD  0720               	addwf	micros@micros_now,w
  3645     0FDE  00F2               	movwf	?_micros
  3646     0FDF  0821               	movf	micros@micros_now+1,w
  3647     0FE0  1803               	skipnc
  3648     0FE1  0F21               	incfsz	micros@micros_now+1,w
  3649     0FE2  1003               	clrc
  3650     0FE3  00F3               	movwf	?_micros+1
  3651     0FE4  0822               	movf	micros@micros_now+2,w
  3652     0FE5  1803               	skipnc
  3653     0FE6  0F22               	incfsz	micros@micros_now+2,w
  3654     0FE7  1003               	clrc
  3655     0FE8  00F4               	movwf	?_micros+2
  3656     0FE9  0823               	movf	micros@micros_now+3,w
  3657     0FEA  1803               	skipnc
  3658     0FEB  0A23               	incf	micros@micros_now+3,w
  3659     0FEC  00F5               	movwf	?_micros+3
  3660     0FED  2FFF               	goto	l206
  3661     0FEE                     l1687:
  3662                           
  3663                           ;Timer_lib.c: 55:         return micros_now + tmr_snapshot;
  3664     0FEE  0824               	movf	micros@tmr_snapshot,w
  3665     0FEF  0720               	addwf	micros@micros_now,w
  3666     0FF0  00F2               	movwf	?_micros
  3667     0FF1  0821               	movf	micros@micros_now+1,w
  3668     0FF2  1803               	skipnc
  3669     0FF3  0F21               	incfsz	micros@micros_now+1,w
  3670     0FF4  1003               	clrc
  3671     0FF5  00F3               	movwf	?_micros+1
  3672     0FF6  0822               	movf	micros@micros_now+2,w
  3673     0FF7  1803               	skipnc
  3674     0FF8  0F22               	incfsz	micros@micros_now+2,w
  3675     0FF9  1003               	clrc
  3676     0FFA  00F4               	movwf	?_micros+2
  3677     0FFB  0823               	movf	micros@micros_now+3,w
  3678     0FFC  1803               	skipnc
  3679     0FFD  0A23               	incf	micros@micros_now+3,w
  3680     0FFE  00F5               	movwf	?_micros+3
  3681     0FFF                     l206:
  3682     0FFF  0008               	return
  3683     1000                     __end_of_micros:
  3684                           
  3685                           	psect	text14
  3686     04E2                     __ptext14:	
  3687 ;; *************** function _isqrt *****************
  3688 ;; Defined at:
  3689 ;;		line 7 in file "ACS712.c"
  3690 ;; Parameters:    Size  Location     Type
  3691 ;;  n               4   19[BANK0 ] unsigned long 
  3692 ;; Auto vars:     Size  Location     Type
  3693 ;;  x               4   31[BANK0 ] unsigned long 
  3694 ;;  y               4   27[BANK0 ] unsigned long 
  3695 ;; Return value:  Size  Location     Type
  3696 ;;                  4   19[BANK0 ] unsigned long 
  3697 ;; Registers used:
  3698 ;;		wreg, status,2, status,0, pclath, cstack
  3699 ;; Tracked objects:
  3700 ;;		On entry : 0/0
  3701 ;;		On exit  : 0/0
  3702 ;;		Unchanged: 0/0
  3703 ;; Data sizes:     COMMON   BANK0   BANK1   BANK3   BANK2
  3704 ;;      Params:         0       4       0       0       0
  3705 ;;      Locals:         0       8       0       0       0
  3706 ;;      Temps:          0       4       0       0       0
  3707 ;;      Totals:         0      16       0       0       0
  3708 ;;Total ram usage:       16 bytes
  3709 ;; Hardware stack levels used: 1
  3710 ;; Hardware stack levels required when called: 2
  3711 ;; This function calls:
  3712 ;;		___lldiv
  3713 ;; This function is called by:
  3714 ;;		_ACS712_ReadAC
  3715 ;; This function uses a non-reentrant model
  3716 ;;
  3717                           
  3718     04E2                     _isqrt:	
  3719                           ;psect for function _isqrt
  3720                           
  3721     04E2                     l1653:	
  3722                           ;incstack = 0
  3723                           ; Regs used in _isqrt: [wreg+status,2+status,0+pclath+cstack]
  3724                           
  3725                           
  3726                           ;ACS712.c: 8:     unsigned long x = n;
  3727     04E2  1283               	bcf	3,5	;RP0=0, select bank0
  3728     04E3  1303               	bcf	3,6	;RP1=0, select bank0
  3729     04E4  0836               	movf	isqrt@n+3,w
  3730     04E5  00C2               	movwf	isqrt@x+3
  3731     04E6  0835               	movf	isqrt@n+2,w
  3732     04E7  00C1               	movwf	isqrt@x+2
  3733     04E8  0834               	movf	isqrt@n+1,w
  3734     04E9  00C0               	movwf	isqrt@x+1
  3735     04EA  0833               	movf	isqrt@n,w
  3736     04EB  00BF               	movwf	isqrt@x
  3737     04EC                     l1655:
  3738                           
  3739                           ;ACS712.c: 9:     unsigned long y = (x + 1) / 2;
  3740     04EC  3001               	movlw	1
  3741     04ED  00B7               	movwf	??_isqrt
  3742     04EE  3000               	movlw	0
  3743     04EF  00B8               	movwf	??_isqrt+1
  3744     04F0  3000               	movlw	0
  3745     04F1  00B9               	movwf	??_isqrt+2
  3746     04F2  3000               	movlw	0
  3747     04F3  00BA               	movwf	??_isqrt+3
  3748     04F4  083F               	movf	isqrt@x,w
  3749     04F5  07B7               	addwf	??_isqrt,f
  3750     04F6  0840               	movf	isqrt@x+1,w
  3751     04F7  1803               	skipnc
  3752     04F8  0F40               	incfsz	isqrt@x+1,w
  3753     04F9  2CFB               	goto	u1680
  3754     04FA  2CFC               	goto	u1681
  3755     04FB                     u1680:
  3756     04FB  07B8               	addwf	??_isqrt+1,f
  3757     04FC                     u1681:
  3758     04FC  0841               	movf	isqrt@x+2,w
  3759     04FD  1803               	skipnc
  3760     04FE  0F41               	incfsz	isqrt@x+2,w
  3761     04FF  2D01               	goto	u1682
  3762     0500  2D02               	goto	u1683
  3763     0501                     u1682:
  3764     0501  07B9               	addwf	??_isqrt+2,f
  3765     0502                     u1683:
  3766     0502  0842               	movf	isqrt@x+3,w
  3767     0503  1803               	skipnc
  3768     0504  0A42               	incf	isqrt@x+3,w
  3769     0505  07BA               	addwf	??_isqrt+3,f
  3770     0506  3001               	movlw	1
  3771     0507                     u1695:
  3772     0507  1003               	clrc
  3773     0508  0CBA               	rrf	??_isqrt+3,f
  3774     0509  0CB9               	rrf	??_isqrt+2,f
  3775     050A  0CB8               	rrf	??_isqrt+1,f
  3776     050B  0CB7               	rrf	??_isqrt,f
  3777     050C                     u1690:
  3778     050C  3EFF               	addlw	-1
  3779     050D  1D03               	skipz
  3780     050E  2D07               	goto	u1695
  3781     050F  083A               	movf	??_isqrt+3,w
  3782     0510  00BE               	movwf	isqrt@y+3
  3783     0511  0839               	movf	??_isqrt+2,w
  3784     0512  00BD               	movwf	isqrt@y+2
  3785     0513  0838               	movf	??_isqrt+1,w
  3786     0514  00BC               	movwf	isqrt@y+1
  3787     0515  0837               	movf	??_isqrt,w
  3788     0516  00BB               	movwf	isqrt@y
  3789                           
  3790                           ;ACS712.c: 10:     while (y < x) {
  3791     0517  2D61               	goto	l1661
  3792     0518                     l1657:
  3793                           
  3794                           ;ACS712.c: 11:         x = y;
  3795     0518  083E               	movf	isqrt@y+3,w
  3796     0519  00C2               	movwf	isqrt@x+3
  3797     051A  083D               	movf	isqrt@y+2,w
  3798     051B  00C1               	movwf	isqrt@x+2
  3799     051C  083C               	movf	isqrt@y+1,w
  3800     051D  00C0               	movwf	isqrt@x+1
  3801     051E  083B               	movf	isqrt@y,w
  3802     051F  00BF               	movwf	isqrt@x
  3803     0520                     l1659:
  3804                           
  3805                           ;ACS712.c: 12:         y = (x + n / y) / 2;
  3806     0520  083E               	movf	isqrt@y+3,w
  3807     0521  00A8               	movwf	___lldiv@divisor+3
  3808     0522  083D               	movf	isqrt@y+2,w
  3809     0523  00A7               	movwf	___lldiv@divisor+2
  3810     0524  083C               	movf	isqrt@y+1,w
  3811     0525  00A6               	movwf	___lldiv@divisor+1
  3812     0526  083B               	movf	isqrt@y,w
  3813     0527  00A5               	movwf	___lldiv@divisor
  3814     0528  0836               	movf	isqrt@n+3,w
  3815     0529  00AC               	movwf	___lldiv@dividend+3
  3816     052A  0835               	movf	isqrt@n+2,w
  3817     052B  00AB               	movwf	___lldiv@dividend+2
  3818     052C  0834               	movf	isqrt@n+1,w
  3819     052D  00AA               	movwf	___lldiv@dividend+1
  3820     052E  0833               	movf	isqrt@n,w
  3821     052F  00A9               	movwf	___lldiv@dividend
  3822     0530  118A  2668  118A   	fcall	___lldiv
  3823     0533  1283               	bcf	3,5	;RP0=0, select bank0
  3824     0534  1303               	bcf	3,6	;RP1=0, select bank0
  3825     0535  0825               	movf	?___lldiv,w
  3826     0536  073F               	addwf	isqrt@x,w
  3827     0537  00B7               	movwf	??_isqrt
  3828     0538  3000               	movlw	0
  3829     0539  1803               	skipnc
  3830     053A  3001               	movlw	1
  3831     053B  0726               	addwf	?___lldiv+1,w
  3832     053C  01B9               	clrf	??_isqrt+2
  3833     053D  1803               	skipnc
  3834     053E  0AB9               	incf	??_isqrt+2,f
  3835     053F  0740               	addwf	isqrt@x+1,w
  3836     0540  00B8               	movwf	??_isqrt+1
  3837     0541  1803               	skipnc
  3838     0542  0AB9               	incf	??_isqrt+2,f
  3839     0543  0827               	movf	?___lldiv+2,w
  3840     0544  0739               	addwf	??_isqrt+2,w
  3841     0545  01BA               	clrf	??_isqrt+3
  3842     0546  1803               	skipnc
  3843     0547  0ABA               	incf	??_isqrt+3,f
  3844     0548  0741               	addwf	isqrt@x+2,w
  3845     0549  00B9               	movwf	??_isqrt+2
  3846     054A  1803               	skipnc
  3847     054B  0ABA               	incf	??_isqrt+3,f
  3848     054C  0828               	movf	?___lldiv+3,w
  3849     054D  073A               	addwf	??_isqrt+3,w
  3850     054E  0742               	addwf	isqrt@x+3,w
  3851     054F  00BA               	movwf	??_isqrt+3
  3852     0550  3001               	movlw	1
  3853     0551                     u1705:
  3854     0551  1003               	clrc
  3855     0552  0CBA               	rrf	??_isqrt+3,f
  3856     0553  0CB9               	rrf	??_isqrt+2,f
  3857     0554  0CB8               	rrf	??_isqrt+1,f
  3858     0555  0CB7               	rrf	??_isqrt,f
  3859     0556                     u1700:
  3860     0556  3EFF               	addlw	-1
  3861     0557  1D03               	skipz
  3862     0558  2D51               	goto	u1705
  3863     0559  083A               	movf	??_isqrt+3,w
  3864     055A  00BE               	movwf	isqrt@y+3
  3865     055B  0839               	movf	??_isqrt+2,w
  3866     055C  00BD               	movwf	isqrt@y+2
  3867     055D  0838               	movf	??_isqrt+1,w
  3868     055E  00BC               	movwf	isqrt@y+1
  3869     055F  0837               	movf	??_isqrt,w
  3870     0560  00BB               	movwf	isqrt@y
  3871     0561                     l1661:
  3872                           
  3873                           ;ACS712.c: 10:     while (y < x) {
  3874     0561  0842               	movf	isqrt@x+3,w
  3875     0562  023E               	subwf	isqrt@y+3,w
  3876     0563  1D03               	skipz
  3877     0564  2D6F               	goto	u1715
  3878     0565  0841               	movf	isqrt@x+2,w
  3879     0566  023D               	subwf	isqrt@y+2,w
  3880     0567  1D03               	skipz
  3881     0568  2D6F               	goto	u1715
  3882     0569  0840               	movf	isqrt@x+1,w
  3883     056A  023C               	subwf	isqrt@y+1,w
  3884     056B  1D03               	skipz
  3885     056C  2D6F               	goto	u1715
  3886     056D  083F               	movf	isqrt@x,w
  3887     056E  023B               	subwf	isqrt@y,w
  3888     056F                     u1715:
  3889     056F  1C03               	skipc
  3890     0570  2D72               	goto	u1711
  3891     0571  2D73               	goto	u1710
  3892     0572                     u1711:
  3893     0572  2D18               	goto	l1657
  3894     0573                     u1710:
  3895     0573                     l1663:
  3896                           
  3897                           ;ACS712.c: 14:     return x;
  3898     0573  0842               	movf	isqrt@x+3,w
  3899     0574  00B6               	movwf	?_isqrt+3
  3900     0575  0841               	movf	isqrt@x+2,w
  3901     0576  00B5               	movwf	?_isqrt+2
  3902     0577  0840               	movf	isqrt@x+1,w
  3903     0578  00B4               	movwf	?_isqrt+1
  3904     0579  083F               	movf	isqrt@x,w
  3905     057A  00B3               	movwf	?_isqrt
  3906     057B                     l10:
  3907     057B  0008               	return
  3908     057C                     __end_of_isqrt:
  3909                           
  3910                           	psect	text15
  3911     0F65                     __ptext15:	
  3912 ;; *************** function ___lmul *****************
  3913 ;; Defined at:
  3914 ;;		line 15 in file "C:\Program Files\Microchip\xc8\v3.00\pic\sources\c99\common\Umul32.c"
  3915 ;; Parameters:    Size  Location     Type
  3916 ;;  multiplier      4    2[COMMON] unsigned long 
  3917 ;;  multiplicand    4    6[COMMON] unsigned long 
  3918 ;; Auto vars:     Size  Location     Type
  3919 ;;  product         4    0[BANK0 ] unsigned long 
  3920 ;; Return value:  Size  Location     Type
  3921 ;;                  4    2[COMMON] unsigned long 
  3922 ;; Registers used:
  3923 ;;		wreg, status,2, status,0
  3924 ;; Tracked objects:
  3925 ;;		On entry : 0/0
  3926 ;;		On exit  : 0/0
  3927 ;;		Unchanged: 0/0
  3928 ;; Data sizes:     COMMON   BANK0   BANK1   BANK3   BANK2
  3929 ;;      Params:         8       0       0       0       0
  3930 ;;      Locals:         0       4       0       0       0
  3931 ;;      Temps:          1       0       0       0       0
  3932 ;;      Totals:         9       4       0       0       0
  3933 ;;Total ram usage:       13 bytes
  3934 ;; Hardware stack levels used: 1
  3935 ;; Hardware stack levels required when called: 1
  3936 ;; This function calls:
  3937 ;;		Nothing
  3938 ;; This function is called by:
  3939 ;;		_ACS712_ReadAC
  3940 ;; This function uses a non-reentrant model
  3941 ;;
  3942                           
  3943     0F65                     ___lmul:	
  3944                           ;psect for function ___lmul
  3945                           
  3946     0F65                     l1695:	
  3947                           ;incstack = 0
  3948                           ; Regs used in ___lmul: [wreg+status,2+status,0]
  3949                           
  3950     0F65  3000               	movlw	0
  3951     0F66  1283               	bcf	3,5	;RP0=0, select bank0
  3952     0F67  1303               	bcf	3,6	;RP1=0, select bank0
  3953     0F68  00A3               	movwf	___lmul@product+3
  3954     0F69  3000               	movlw	0
  3955     0F6A  00A2               	movwf	___lmul@product+2
  3956     0F6B  3000               	movlw	0
  3957     0F6C  00A1               	movwf	___lmul@product+1
  3958     0F6D  3000               	movlw	0
  3959     0F6E  00A0               	movwf	___lmul@product
  3960     0F6F                     l1697:
  3961     0F6F  1C72               	btfss	___lmul@multiplier,0
  3962     0F70  2F72               	goto	u1771
  3963     0F71  2F73               	goto	u1770
  3964     0F72                     u1771:
  3965     0F72  2F8C               	goto	l1701
  3966     0F73                     u1770:
  3967     0F73                     l1699:
  3968     0F73  0876               	movf	___lmul@multiplicand,w
  3969     0F74  1283               	bcf	3,5	;RP0=0, select bank0
  3970     0F75  1303               	bcf	3,6	;RP1=0, select bank0
  3971     0F76  07A0               	addwf	___lmul@product,f
  3972     0F77  0877               	movf	___lmul@multiplicand+1,w
  3973     0F78  1103               	clrz
  3974     0F79  1803               	skipnc
  3975     0F7A  3E01               	addlw	1
  3976     0F7B  1903               	skipnz
  3977     0F7C  2F7E               	goto	u1781
  3978     0F7D  07A1               	addwf	___lmul@product+1,f
  3979     0F7E                     u1781:
  3980     0F7E  0878               	movf	___lmul@multiplicand+2,w
  3981     0F7F  1103               	clrz
  3982     0F80  1803               	skipnc
  3983     0F81  3E01               	addlw	1
  3984     0F82  1903               	skipnz
  3985     0F83  2F85               	goto	u1782
  3986     0F84  07A2               	addwf	___lmul@product+2,f
  3987     0F85                     u1782:
  3988     0F85  0879               	movf	___lmul@multiplicand+3,w
  3989     0F86  1103               	clrz
  3990     0F87  1803               	skipnc
  3991     0F88  3E01               	addlw	1
  3992     0F89  1903               	skipnz
  3993     0F8A  2F8C               	goto	u1783
  3994     0F8B  07A3               	addwf	___lmul@product+3,f
  3995     0F8C                     u1783:
  3996     0F8C                     l1701:
  3997     0F8C  3001               	movlw	1
  3998     0F8D  00FA               	movwf	??___lmul
  3999     0F8E                     u1795:
  4000     0F8E  1003               	clrc
  4001     0F8F  0DF6               	rlf	___lmul@multiplicand,f
  4002     0F90  0DF7               	rlf	___lmul@multiplicand+1,f
  4003     0F91  0DF8               	rlf	___lmul@multiplicand+2,f
  4004     0F92  0DF9               	rlf	___lmul@multiplicand+3,f
  4005     0F93  0BFA               	decfsz	??___lmul,f
  4006     0F94  2F8E               	goto	u1795
  4007     0F95                     l1703:
  4008     0F95  3001               	movlw	1
  4009     0F96                     u1805:
  4010     0F96  1003               	clrc
  4011     0F97  0CF5               	rrf	___lmul@multiplier+3,f
  4012     0F98  0CF4               	rrf	___lmul@multiplier+2,f
  4013     0F99  0CF3               	rrf	___lmul@multiplier+1,f
  4014     0F9A  0CF2               	rrf	___lmul@multiplier,f
  4015     0F9B  3EFF               	addlw	-1
  4016     0F9C  1D03               	skipz
  4017     0F9D  2F96               	goto	u1805
  4018     0F9E  0875               	movf	___lmul@multiplier+3,w
  4019     0F9F  0474               	iorwf	___lmul@multiplier+2,w
  4020     0FA0  0473               	iorwf	___lmul@multiplier+1,w
  4021     0FA1  0472               	iorwf	___lmul@multiplier,w
  4022     0FA2  1D03               	skipz
  4023     0FA3  2FA5               	goto	u1811
  4024     0FA4  2FA6               	goto	u1810
  4025     0FA5                     u1811:
  4026     0FA5  2F6F               	goto	l1697
  4027     0FA6                     u1810:
  4028     0FA6                     l1705:
  4029     0FA6  1283               	bcf	3,5	;RP0=0, select bank0
  4030     0FA7  1303               	bcf	3,6	;RP1=0, select bank0
  4031     0FA8  0823               	movf	___lmul@product+3,w
  4032     0FA9  00F5               	movwf	?___lmul+3
  4033     0FAA  0822               	movf	___lmul@product+2,w
  4034     0FAB  00F4               	movwf	?___lmul+2
  4035     0FAC  0821               	movf	___lmul@product+1,w
  4036     0FAD  00F3               	movwf	?___lmul+1
  4037     0FAE  0820               	movf	___lmul@product,w
  4038     0FAF  00F2               	movwf	?___lmul
  4039     0FB0                     l295:
  4040     0FB0  0008               	return
  4041     0FB1                     __end_of___lmul:
  4042                           
  4043                           	psect	text16
  4044     0731                     __ptext16:	
  4045 ;; *************** function _ACS712_Init *****************
  4046 ;; Defined at:
  4047 ;;		line 17 in file "ACS712.c"
  4048 ;; Parameters:    Size  Location     Type
  4049 ;;  sensor          2    0[BANK0 ] PTR struct .
  4050 ;;		 -> mySensor(9), 
  4051 ;;  channel         1    2[BANK0 ] unsigned char 
  4052 ;;  v_ref_mv        2    3[BANK0 ] unsigned int 
  4053 ;;  adc_res         2    5[BANK0 ] int 
  4054 ;; Auto vars:     Size  Location     Type
  4055 ;;		None
  4056 ;; Return value:  Size  Location     Type
  4057 ;;                  1    wreg      void 
  4058 ;; Registers used:
  4059 ;;		wreg, fsr0l, fsr0h, status,2, status,0, pclath, cstack
  4060 ;; Tracked objects:
  4061 ;;		On entry : 0/0
  4062 ;;		On exit  : 0/0
  4063 ;;		Unchanged: 0/0
  4064 ;; Data sizes:     COMMON   BANK0   BANK1   BANK3   BANK2
  4065 ;;      Params:         0       7       0       0       0
  4066 ;;      Locals:         0       0       0       0       0
  4067 ;;      Temps:          0       2       0       0       0
  4068 ;;      Totals:         0       9       0       0       0
  4069 ;;Total ram usage:        9 bytes
  4070 ;; Hardware stack levels used: 1
  4071 ;; Hardware stack levels required when called: 2
  4072 ;; This function calls:
  4073 ;;		___awdiv
  4074 ;; This function is called by:
  4075 ;;		_main
  4076 ;; This function uses a non-reentrant model
  4077 ;;
  4078                           
  4079     0731                     _ACS712_Init:	
  4080                           ;psect for function _ACS712_Init
  4081                           
  4082     0731                     l1791:	
  4083                           ;incstack = 0
  4084                           ; Regs used in _ACS712_Init: [wreg-fsr0h+status,2+status,0+pclath+cstack]
  4085                           
  4086                           
  4087                           ;ACS712.c: 18:     sensor->adc_channel = channel;
  4088     0731  1283               	bcf	3,5	;RP0=0, select bank0
  4089     0732  1303               	bcf	3,6	;RP1=0, select bank0
  4090     0733  0820               	movf	ACS712_Init@sensor,w
  4091     0734  0084               	movwf	4
  4092     0735  1783               	bsf	3,7
  4093     0736  1C21               	btfss	ACS712_Init@sensor+1,0
  4094     0737  1383               	bcf	3,7
  4095     0738  0822               	movf	ACS712_Init@channel,w
  4096     0739  0080               	movwf	0
  4097     073A                     l1793:
  4098                           
  4099                           ;ACS712.c: 19:     sensor->voltage_reference_mv = v_ref_mv;
  4100     073A  0820               	movf	ACS712_Init@sensor,w
  4101     073B  3E01               	addlw	1
  4102     073C  00A7               	movwf	??_ACS712_Init
  4103     073D  0821               	movf	ACS712_Init@sensor+1,w
  4104     073E  1803               	skipnc
  4105     073F  3E01               	addlw	1
  4106     0740  3E00               	addlw	0
  4107     0741  00A8               	movwf	??_ACS712_Init+1
  4108     0742  0827               	movf	??_ACS712_Init,w
  4109     0743  0084               	movwf	4
  4110     0744  1783               	bsf	3,7
  4111     0745  1C28               	btfss	??_ACS712_Init+1,0
  4112     0746  1383               	bcf	3,7
  4113     0747  0823               	movf	ACS712_Init@v_ref_mv,w
  4114     0748  0080               	movwf	0
  4115     0749  0A84               	incf	4,f
  4116     074A  0824               	movf	ACS712_Init@v_ref_mv+1,w
  4117     074B  0080               	movwf	0
  4118     074C                     l1795:
  4119                           
  4120                           ;ACS712.c: 20:     sensor->adc_resolution = adc_res;
  4121     074C  0820               	movf	ACS712_Init@sensor,w
  4122     074D  3E03               	addlw	3
  4123     074E  00A7               	movwf	??_ACS712_Init
  4124     074F  0821               	movf	ACS712_Init@sensor+1,w
  4125     0750  1803               	skipnc
  4126     0751  3E01               	addlw	1
  4127     0752  3E00               	addlw	0
  4128     0753  00A8               	movwf	??_ACS712_Init+1
  4129     0754  0827               	movf	??_ACS712_Init,w
  4130     0755  0084               	movwf	4
  4131     0756  1783               	bsf	3,7
  4132     0757  1C28               	btfss	??_ACS712_Init+1,0
  4133     0758  1383               	bcf	3,7
  4134     0759  0825               	movf	ACS712_Init@adc_res,w
  4135     075A  0080               	movwf	0
  4136     075B  0A84               	incf	4,f
  4137     075C  0826               	movf	ACS712_Init@adc_res+1,w
  4138     075D  0080               	movwf	0
  4139     075E                     l1797:
  4140                           
  4141                           ;ACS712.c: 22:     sensor->sensitivity_mV_A = 100;
  4142     075E  0820               	movf	ACS712_Init@sensor,w
  4143     075F  3E07               	addlw	7
  4144     0760  00A7               	movwf	??_ACS712_Init
  4145     0761  0821               	movf	ACS712_Init@sensor+1,w
  4146     0762  1803               	skipnc
  4147     0763  3E01               	addlw	1
  4148     0764  3E00               	addlw	0
  4149     0765  00A8               	movwf	??_ACS712_Init+1
  4150     0766  0827               	movf	??_ACS712_Init,w
  4151     0767  0084               	movwf	4
  4152     0768  1783               	bsf	3,7
  4153     0769  1C28               	btfss	??_ACS712_Init+1,0
  4154     076A  1383               	bcf	3,7
  4155     076B  3064               	movlw	100
  4156     076C  0080               	movwf	0
  4157     076D  0A84               	incf	4,f
  4158     076E  3000               	movlw	0
  4159     076F  0080               	movwf	0
  4160     0770                     l1799:
  4161                           
  4162                           ;ACS712.c: 23:     sensor->zero_point = adc_res / 2;
  4163     0770  3002               	movlw	2
  4164     0771  00F2               	movwf	___awdiv@divisor
  4165     0772  3000               	movlw	0
  4166     0773  00F3               	movwf	___awdiv@divisor+1
  4167     0774  0826               	movf	ACS712_Init@adc_res+1,w
  4168     0775  00F5               	movwf	___awdiv@dividend+1
  4169     0776  0825               	movf	ACS712_Init@adc_res,w
  4170     0777  00F4               	movwf	___awdiv@dividend
  4171     0778  118A  26CE  118A   	fcall	___awdiv
  4172     077B  1283               	bcf	3,5	;RP0=0, select bank0
  4173     077C  1303               	bcf	3,6	;RP1=0, select bank0
  4174     077D  0820               	movf	ACS712_Init@sensor,w
  4175     077E  3E05               	addlw	5
  4176     077F  00A7               	movwf	??_ACS712_Init
  4177     0780  0821               	movf	ACS712_Init@sensor+1,w
  4178     0781  1803               	skipnc
  4179     0782  3E01               	addlw	1
  4180     0783  3E00               	addlw	0
  4181     0784  00A8               	movwf	??_ACS712_Init+1
  4182     0785  0827               	movf	??_ACS712_Init,w
  4183     0786  0084               	movwf	4
  4184     0787  1783               	bsf	3,7
  4185     0788  1C28               	btfss	??_ACS712_Init+1,0
  4186     0789  1383               	bcf	3,7
  4187     078A  0872               	movf	?___awdiv,w
  4188     078B  0080               	movwf	0
  4189     078C  0A84               	incf	4,f
  4190     078D  0873               	movf	?___awdiv+1,w
  4191     078E  0080               	movwf	0
  4192     078F                     l13:
  4193     078F  0008               	return
  4194     0790                     __end_of_ACS712_Init:
  4195                           
  4196                           	psect	text17
  4197     06CE                     __ptext17:	
  4198 ;; *************** function ___awdiv *****************
  4199 ;; Defined at:
  4200 ;;		line 5 in file "C:\Program Files\Microchip\xc8\v3.00\pic\sources\c99\common\awdiv.c"
  4201 ;; Parameters:    Size  Location     Type
  4202 ;;  divisor         2    2[COMMON] int 
  4203 ;;  dividend        2    4[COMMON] int 
  4204 ;; Auto vars:     Size  Location     Type
  4205 ;;  quotient        2    8[COMMON] int 
  4206 ;;  sign            1    7[COMMON] unsigned char 
  4207 ;;  counter         1    6[COMMON] unsigned char 
  4208 ;; Return value:  Size  Location     Type
  4209 ;;                  2    2[COMMON] int 
  4210 ;; Registers used:
  4211 ;;		wreg, status,2, status,0
  4212 ;; Tracked objects:
  4213 ;;		On entry : 0/0
  4214 ;;		On exit  : 0/0
  4215 ;;		Unchanged: 0/0
  4216 ;; Data sizes:     COMMON   BANK0   BANK1   BANK3   BANK2
  4217 ;;      Params:         4       0       0       0       0
  4218 ;;      Locals:         4       0       0       0       0
  4219 ;;      Temps:          0       0       0       0       0
  4220 ;;      Totals:         8       0       0       0       0
  4221 ;;Total ram usage:        8 bytes
  4222 ;; Hardware stack levels used: 1
  4223 ;; Hardware stack levels required when called: 1
  4224 ;; This function calls:
  4225 ;;		Nothing
  4226 ;; This function is called by:
  4227 ;;		_ACS712_Init
  4228 ;;		_IntToText
  4229 ;; This function uses a non-reentrant model
  4230 ;;
  4231                           
  4232     06CE                     ___awdiv:	
  4233                           ;psect for function ___awdiv
  4234                           
  4235     06CE                     l1709:	
  4236                           ;incstack = 0
  4237                           ; Regs used in ___awdiv: [wreg+status,2+status,0]
  4238                           
  4239     06CE  01F7               	clrf	___awdiv@sign
  4240     06CF                     l1711:
  4241     06CF  1FF3               	btfss	___awdiv@divisor+1,7
  4242     06D0  2ED2               	goto	u1821
  4243     06D1  2ED3               	goto	u1820
  4244     06D2                     u1821:
  4245     06D2  2EDA               	goto	l1717
  4246     06D3                     u1820:
  4247     06D3                     l1713:
  4248     06D3  09F2               	comf	___awdiv@divisor,f
  4249     06D4  09F3               	comf	___awdiv@divisor+1,f
  4250     06D5  0AF2               	incf	___awdiv@divisor,f
  4251     06D6  1903               	skipnz
  4252     06D7  0AF3               	incf	___awdiv@divisor+1,f
  4253     06D8                     l1715:
  4254     06D8  3001               	movlw	1
  4255     06D9  00F7               	movwf	___awdiv@sign
  4256     06DA                     l1717:
  4257     06DA  1FF5               	btfss	___awdiv@dividend+1,7
  4258     06DB  2EDD               	goto	u1831
  4259     06DC  2EDE               	goto	u1830
  4260     06DD                     u1831:
  4261     06DD  2EE5               	goto	l1723
  4262     06DE                     u1830:
  4263     06DE                     l1719:
  4264     06DE  09F4               	comf	___awdiv@dividend,f
  4265     06DF  09F5               	comf	___awdiv@dividend+1,f
  4266     06E0  0AF4               	incf	___awdiv@dividend,f
  4267     06E1  1903               	skipnz
  4268     06E2  0AF5               	incf	___awdiv@dividend+1,f
  4269     06E3                     l1721:
  4270     06E3  3001               	movlw	1
  4271     06E4  06F7               	xorwf	___awdiv@sign,f
  4272     06E5                     l1723:
  4273     06E5  01F8               	clrf	___awdiv@quotient
  4274     06E6  01F9               	clrf	___awdiv@quotient+1
  4275     06E7                     l1725:
  4276     06E7  0872               	movf	___awdiv@divisor,w
  4277     06E8  0473               	iorwf	___awdiv@divisor+1,w
  4278     06E9  1903               	btfsc	3,2
  4279     06EA  2EEC               	goto	u1841
  4280     06EB  2EED               	goto	u1840
  4281     06EC                     u1841:
  4282     06EC  2F22               	goto	l1745
  4283     06ED                     u1840:
  4284     06ED                     l1727:
  4285     06ED  3001               	movlw	1
  4286     06EE  00F6               	movwf	___awdiv@counter
  4287     06EF  2EF9               	goto	l1733
  4288     06F0                     l1729:
  4289     06F0  3001               	movlw	1
  4290     06F1                     u1855:
  4291     06F1  1003               	clrc
  4292     06F2  0DF2               	rlf	___awdiv@divisor,f
  4293     06F3  0DF3               	rlf	___awdiv@divisor+1,f
  4294     06F4  3EFF               	addlw	-1
  4295     06F5  1D03               	skipz
  4296     06F6  2EF1               	goto	u1855
  4297     06F7                     l1731:
  4298     06F7  3001               	movlw	1
  4299     06F8  07F6               	addwf	___awdiv@counter,f
  4300     06F9                     l1733:
  4301     06F9  1FF3               	btfss	___awdiv@divisor+1,7
  4302     06FA  2EFC               	goto	u1861
  4303     06FB  2EFD               	goto	u1860
  4304     06FC                     u1861:
  4305     06FC  2EF0               	goto	l1729
  4306     06FD                     u1860:
  4307     06FD                     l1735:
  4308     06FD  3001               	movlw	1
  4309     06FE                     u1875:
  4310     06FE  1003               	clrc
  4311     06FF  0DF8               	rlf	___awdiv@quotient,f
  4312     0700  0DF9               	rlf	___awdiv@quotient+1,f
  4313     0701  3EFF               	addlw	-1
  4314     0702  1D03               	skipz
  4315     0703  2EFE               	goto	u1875
  4316     0704  0873               	movf	___awdiv@divisor+1,w
  4317     0705  0275               	subwf	___awdiv@dividend+1,w
  4318     0706  1D03               	skipz
  4319     0707  2F0A               	goto	u1885
  4320     0708  0872               	movf	___awdiv@divisor,w
  4321     0709  0274               	subwf	___awdiv@dividend,w
  4322     070A                     u1885:
  4323     070A  1C03               	skipc
  4324     070B  2F0D               	goto	u1881
  4325     070C  2F0E               	goto	u1880
  4326     070D                     u1881:
  4327     070D  2F15               	goto	l1741
  4328     070E                     u1880:
  4329     070E                     l1737:
  4330     070E  0872               	movf	___awdiv@divisor,w
  4331     070F  02F4               	subwf	___awdiv@dividend,f
  4332     0710  0873               	movf	___awdiv@divisor+1,w
  4333     0711  1C03               	skipc
  4334     0712  03F5               	decf	___awdiv@dividend+1,f
  4335     0713  02F5               	subwf	___awdiv@dividend+1,f
  4336     0714                     l1739:
  4337     0714  1478               	bsf	___awdiv@quotient,0
  4338     0715                     l1741:
  4339     0715  3001               	movlw	1
  4340     0716                     u1895:
  4341     0716  1003               	clrc
  4342     0717  0CF3               	rrf	___awdiv@divisor+1,f
  4343     0718  0CF2               	rrf	___awdiv@divisor,f
  4344     0719  3EFF               	addlw	-1
  4345     071A  1D03               	skipz
  4346     071B  2F16               	goto	u1895
  4347     071C                     l1743:
  4348     071C  3001               	movlw	1
  4349     071D  02F6               	subwf	___awdiv@counter,f
  4350     071E  1D03               	btfss	3,2
  4351     071F  2F21               	goto	u1901
  4352     0720  2F22               	goto	u1900
  4353     0721                     u1901:
  4354     0721  2EFD               	goto	l1735
  4355     0722                     u1900:
  4356     0722                     l1745:
  4357     0722  0877               	movf	___awdiv@sign,w
  4358     0723  1903               	btfsc	3,2
  4359     0724  2F26               	goto	u1911
  4360     0725  2F27               	goto	u1910
  4361     0726                     u1911:
  4362     0726  2F2C               	goto	l1749
  4363     0727                     u1910:
  4364     0727                     l1747:
  4365     0727  09F8               	comf	___awdiv@quotient,f
  4366     0728  09F9               	comf	___awdiv@quotient+1,f
  4367     0729  0AF8               	incf	___awdiv@quotient,f
  4368     072A  1903               	skipnz
  4369     072B  0AF9               	incf	___awdiv@quotient+1,f
  4370     072C                     l1749:
  4371     072C  0879               	movf	___awdiv@quotient+1,w
  4372     072D  00F3               	movwf	?___awdiv+1
  4373     072E  0878               	movf	___awdiv@quotient,w
  4374     072F  00F2               	movwf	?___awdiv
  4375     0730                     l434:
  4376     0730  0008               	return
  4377     0731                     __end_of___awdiv:
  4378                           
  4379                           	psect	text18
  4380     057C                     __ptext18:	
  4381 ;; *************** function _ACS712_Calibrate *****************
  4382 ;; Defined at:
  4383 ;;		line 30 in file "ACS712.c"
  4384 ;; Parameters:    Size  Location     Type
  4385 ;;  sensor          2   19[BANK0 ] PTR struct .
  4386 ;;		 -> mySensor(9), 
  4387 ;; Auto vars:     Size  Location     Type
  4388 ;;  accumulator     4   25[BANK0 ] unsigned long 
  4389 ;;  i               2   29[BANK0 ] int 
  4390 ;; Return value:  Size  Location     Type
  4391 ;;                  1    wreg      void 
  4392 ;; Registers used:
  4393 ;;		wreg, fsr0l, fsr0h, status,2, status,0, btemp+1, pclath, cstack
  4394 ;; Tracked objects:
  4395 ;;		On entry : 0/0
  4396 ;;		On exit  : 0/0
  4397 ;;		Unchanged: 0/0
  4398 ;; Data sizes:     COMMON   BANK0   BANK1   BANK3   BANK2
  4399 ;;      Params:         0       2       0       0       0
  4400 ;;      Locals:         0       6       0       0       0
  4401 ;;      Temps:          0       4       0       0       0
  4402 ;;      Totals:         0      12       0       0       0
  4403 ;;Total ram usage:       12 bytes
  4404 ;; Hardware stack levels used: 1
  4405 ;; Hardware stack levels required when called: 2
  4406 ;; This function calls:
  4407 ;;		_ADC_Read
  4408 ;;		___lldiv
  4409 ;; This function is called by:
  4410 ;;		_main
  4411 ;; This function uses a non-reentrant model
  4412 ;;
  4413                           
  4414     057C                     _ACS712_Calibrate:	
  4415                           ;psect for function _ACS712_Calibrate
  4416                           
  4417     057C                     l1803:	
  4418                           ;incstack = 0
  4419                           ; Regs used in _ACS712_Calibrate: [wreg-fsr0h+status,2+status,0+btemp+1+pclath+cstack]
  4420                           
  4421                           
  4422                           ;ACS712.c: 31:     int i;;ACS712.c: 32:     unsigned long accumulator = 0;
  4423     057C  3000               	movlw	0
  4424     057D  1283               	bcf	3,5	;RP0=0, select bank0
  4425     057E  1303               	bcf	3,6	;RP1=0, select bank0
  4426     057F  00BC               	movwf	ACS712_Calibrate@accumulator+3
  4427     0580  3000               	movlw	0
  4428     0581  00BB               	movwf	ACS712_Calibrate@accumulator+2
  4429     0582  3000               	movlw	0
  4430     0583  00BA               	movwf	ACS712_Calibrate@accumulator+1
  4431     0584  3000               	movlw	0
  4432     0585  00B9               	movwf	ACS712_Calibrate@accumulator
  4433     0586                     l1805:
  4434                           
  4435                           ;ACS712.c: 33:     for (i = 0; i < 100; i++) {
  4436     0586  01BD               	clrf	ACS712_Calibrate@i
  4437     0587  01BE               	clrf	ACS712_Calibrate@i+1
  4438     0588                     l1811:
  4439                           
  4440                           ;ACS712.c: 34:         accumulator += ADC_Read(sensor->adc_channel);
  4441     0588  1283               	bcf	3,5	;RP0=0, select bank0
  4442     0589  1303               	bcf	3,6	;RP1=0, select bank0
  4443     058A  0833               	movf	ACS712_Calibrate@sensor,w
  4444     058B  0084               	movwf	4
  4445     058C  1783               	bsf	3,7
  4446     058D  1C34               	btfss	ACS712_Calibrate@sensor+1,0
  4447     058E  1383               	bcf	3,7
  4448     058F  0800               	movf	0,w
  4449     0590  158A  2635  118A   	fcall	_ADC_Read
  4450     0593  0872               	movf	?_ADC_Read,w
  4451     0594  1283               	bcf	3,5	;RP0=0, select bank0
  4452     0595  1303               	bcf	3,6	;RP1=0, select bank0
  4453     0596  00B5               	movwf	??_ACS712_Calibrate
  4454     0597  0873               	movf	?_ADC_Read+1,w
  4455     0598  00B6               	movwf	??_ACS712_Calibrate+1
  4456     0599  01B7               	clrf	??_ACS712_Calibrate+2
  4457     059A  01B8               	clrf	??_ACS712_Calibrate+3
  4458     059B  0835               	movf	??_ACS712_Calibrate,w
  4459     059C  07B9               	addwf	ACS712_Calibrate@accumulator,f
  4460     059D  0836               	movf	??_ACS712_Calibrate+1,w
  4461     059E  1103               	clrz
  4462     059F  1803               	skipnc
  4463     05A0  3E01               	addlw	1
  4464     05A1  1903               	skipnz
  4465     05A2  2DA4               	goto	u2011
  4466     05A3  07BA               	addwf	ACS712_Calibrate@accumulator+1,f
  4467     05A4                     u2011:
  4468     05A4  0837               	movf	??_ACS712_Calibrate+2,w
  4469     05A5  1103               	clrz
  4470     05A6  1803               	skipnc
  4471     05A7  3E01               	addlw	1
  4472     05A8  1903               	skipnz
  4473     05A9  2DAB               	goto	u2012
  4474     05AA  07BB               	addwf	ACS712_Calibrate@accumulator+2,f
  4475     05AB                     u2012:
  4476     05AB  0838               	movf	??_ACS712_Calibrate+3,w
  4477     05AC  1103               	clrz
  4478     05AD  1803               	skipnc
  4479     05AE  3E01               	addlw	1
  4480     05AF  1903               	skipnz
  4481     05B0  2DB2               	goto	u2013
  4482     05B1  07BC               	addwf	ACS712_Calibrate@accumulator+3,f
  4483     05B2                     u2013:
  4484     05B2                     l1813:
  4485                           
  4486                           ;ACS712.c: 35:     }
  4487     05B2  3001               	movlw	1
  4488     05B3  07BD               	addwf	ACS712_Calibrate@i,f
  4489     05B4  1803               	skipnc
  4490     05B5  0ABE               	incf	ACS712_Calibrate@i+1,f
  4491     05B6  3000               	movlw	0
  4492     05B7  07BE               	addwf	ACS712_Calibrate@i+1,f
  4493     05B8                     l1815:
  4494     05B8  083E               	movf	ACS712_Calibrate@i+1,w
  4495     05B9  3A80               	xorlw	128
  4496     05BA  00FF               	movwf	btemp+1
  4497     05BB  3080               	movlw	128
  4498     05BC  027F               	subwf	btemp+1,w
  4499     05BD  1D03               	skipz
  4500     05BE  2DC1               	goto	u2025
  4501     05BF  3064               	movlw	100
  4502     05C0  023D               	subwf	ACS712_Calibrate@i,w
  4503     05C1                     u2025:
  4504     05C1  1C03               	skipc
  4505     05C2  2DC4               	goto	u2021
  4506     05C3  2DC5               	goto	u2020
  4507     05C4                     u2021:
  4508     05C4  2D88               	goto	l1811
  4509     05C5                     u2020:
  4510     05C5                     l1817:
  4511                           
  4512                           ;ACS712.c: 36:     sensor->zero_point = accumulator / 100;
  4513     05C5  3000               	movlw	0
  4514     05C6  1283               	bcf	3,5	;RP0=0, select bank0
  4515     05C7  1303               	bcf	3,6	;RP1=0, select bank0
  4516     05C8  00A8               	movwf	___lldiv@divisor+3
  4517     05C9  3000               	movlw	0
  4518     05CA  00A7               	movwf	___lldiv@divisor+2
  4519     05CB  3000               	movlw	0
  4520     05CC  00A6               	movwf	___lldiv@divisor+1
  4521     05CD  3064               	movlw	100
  4522     05CE  00A5               	movwf	___lldiv@divisor
  4523     05CF  083C               	movf	ACS712_Calibrate@accumulator+3,w
  4524     05D0  00AC               	movwf	___lldiv@dividend+3
  4525     05D1  083B               	movf	ACS712_Calibrate@accumulator+2,w
  4526     05D2  00AB               	movwf	___lldiv@dividend+2
  4527     05D3  083A               	movf	ACS712_Calibrate@accumulator+1,w
  4528     05D4  00AA               	movwf	___lldiv@dividend+1
  4529     05D5  0839               	movf	ACS712_Calibrate@accumulator,w
  4530     05D6  00A9               	movwf	___lldiv@dividend
  4531     05D7  118A  2668  118A   	fcall	___lldiv
  4532     05DA  1283               	bcf	3,5	;RP0=0, select bank0
  4533     05DB  1303               	bcf	3,6	;RP1=0, select bank0
  4534     05DC  0833               	movf	ACS712_Calibrate@sensor,w
  4535     05DD  3E05               	addlw	5
  4536     05DE  00B5               	movwf	??_ACS712_Calibrate
  4537     05DF  0834               	movf	ACS712_Calibrate@sensor+1,w
  4538     05E0  1803               	skipnc
  4539     05E1  3E01               	addlw	1
  4540     05E2  3E00               	addlw	0
  4541     05E3  00B6               	movwf	??_ACS712_Calibrate+1
  4542     05E4  0835               	movf	??_ACS712_Calibrate,w
  4543     05E5  0084               	movwf	4
  4544     05E6  1783               	bsf	3,7
  4545     05E7  1C36               	btfss	??_ACS712_Calibrate+1,0
  4546     05E8  1383               	bcf	3,7
  4547     05E9  0825               	movf	?___lldiv,w
  4548     05EA  0080               	movwf	0
  4549     05EB  0A84               	incf	4,f
  4550     05EC  0826               	movf	?___lldiv+1,w
  4551     05ED  0080               	movwf	0
  4552     05EE                     l21:
  4553     05EE  0008               	return
  4554     05EF                     __end_of_ACS712_Calibrate:
  4555                           
  4556                           	psect	text19
  4557     0668                     __ptext19:	
  4558 ;; *************** function ___lldiv *****************
  4559 ;; Defined at:
  4560 ;;		line 5 in file "C:\Program Files\Microchip\xc8\v3.00\pic\sources\c99\common\__lldiv.c"
  4561 ;; Parameters:    Size  Location     Type
  4562 ;;  divisor         4    5[BANK0 ] unsigned long 
  4563 ;;  dividend        4    9[BANK0 ] unsigned long 
  4564 ;; Auto vars:     Size  Location     Type
  4565 ;;  quotient        4   14[BANK0 ] unsigned long 
  4566 ;;  counter         1   18[BANK0 ] unsigned char 
  4567 ;; Return value:  Size  Location     Type
  4568 ;;                  4    5[BANK0 ] unsigned long 
  4569 ;; Registers used:
  4570 ;;		wreg, status,2, status,0
  4571 ;; Tracked objects:
  4572 ;;		On entry : 0/0
  4573 ;;		On exit  : 0/0
  4574 ;;		Unchanged: 0/0
  4575 ;; Data sizes:     COMMON   BANK0   BANK1   BANK3   BANK2
  4576 ;;      Params:         0       8       0       0       0
  4577 ;;      Locals:         0       5       0       0       0
  4578 ;;      Temps:          0       1       0       0       0
  4579 ;;      Totals:         0      14       0       0       0
  4580 ;;Total ram usage:       14 bytes
  4581 ;; Hardware stack levels used: 1
  4582 ;; Hardware stack levels required when called: 1
  4583 ;; This function calls:
  4584 ;;		Nothing
  4585 ;; This function is called by:
  4586 ;;		_isqrt
  4587 ;;		_ACS712_Calibrate
  4588 ;;		_ACS712_ReadAC
  4589 ;;		_main
  4590 ;;		_millis
  4591 ;; This function uses a non-reentrant model
  4592 ;;
  4593                           
  4594     0668                     ___lldiv:	
  4595                           ;psect for function ___lldiv
  4596                           
  4597     0668                     l1629:	
  4598                           ;incstack = 0
  4599                           ; Regs used in ___lldiv: [wreg+status,2+status,0]
  4600                           
  4601     0668  3000               	movlw	0
  4602     0669  1283               	bcf	3,5	;RP0=0, select bank0
  4603     066A  1303               	bcf	3,6	;RP1=0, select bank0
  4604     066B  00B1               	movwf	___lldiv@quotient+3
  4605     066C  3000               	movlw	0
  4606     066D  00B0               	movwf	___lldiv@quotient+2
  4607     066E  3000               	movlw	0
  4608     066F  00AF               	movwf	___lldiv@quotient+1
  4609     0670  3000               	movlw	0
  4610     0671  00AE               	movwf	___lldiv@quotient
  4611     0672  0828               	movf	___lldiv@divisor+3,w
  4612     0673  0427               	iorwf	___lldiv@divisor+2,w
  4613     0674  0426               	iorwf	___lldiv@divisor+1,w
  4614     0675  0425               	iorwf	___lldiv@divisor,w
  4615     0676  1903               	skipnz
  4616     0677  2E79               	goto	u1611
  4617     0678  2E7A               	goto	u1610
  4618     0679                     u1611:
  4619     0679  2EC5               	goto	l1649
  4620     067A                     u1610:
  4621     067A                     l1631:
  4622     067A  3001               	movlw	1
  4623     067B  00B2               	movwf	___lldiv@counter
  4624     067C  2E88               	goto	l1635
  4625     067D                     l1633:
  4626     067D  3001               	movlw	1
  4627     067E  00AD               	movwf	??___lldiv
  4628     067F                     u1625:
  4629     067F  1003               	clrc
  4630     0680  0DA5               	rlf	___lldiv@divisor,f
  4631     0681  0DA6               	rlf	___lldiv@divisor+1,f
  4632     0682  0DA7               	rlf	___lldiv@divisor+2,f
  4633     0683  0DA8               	rlf	___lldiv@divisor+3,f
  4634     0684  0BAD               	decfsz	??___lldiv,f
  4635     0685  2E7F               	goto	u1625
  4636     0686  3001               	movlw	1
  4637     0687  07B2               	addwf	___lldiv@counter,f
  4638     0688                     l1635:
  4639     0688  1FA8               	btfss	___lldiv@divisor+3,7
  4640     0689  2E8B               	goto	u1631
  4641     068A  2E8C               	goto	u1630
  4642     068B                     u1631:
  4643     068B  2E7D               	goto	l1633
  4644     068C                     u1630:
  4645     068C                     l1637:
  4646     068C  3001               	movlw	1
  4647     068D  00AD               	movwf	??___lldiv
  4648     068E                     u1645:
  4649     068E  1003               	clrc
  4650     068F  0DAE               	rlf	___lldiv@quotient,f
  4651     0690  0DAF               	rlf	___lldiv@quotient+1,f
  4652     0691  0DB0               	rlf	___lldiv@quotient+2,f
  4653     0692  0DB1               	rlf	___lldiv@quotient+3,f
  4654     0693  0BAD               	decfsz	??___lldiv,f
  4655     0694  2E8E               	goto	u1645
  4656     0695                     l1639:
  4657     0695  0828               	movf	___lldiv@divisor+3,w
  4658     0696  022C               	subwf	___lldiv@dividend+3,w
  4659     0697  1D03               	skipz
  4660     0698  2EA3               	goto	u1655
  4661     0699  0827               	movf	___lldiv@divisor+2,w
  4662     069A  022B               	subwf	___lldiv@dividend+2,w
  4663     069B  1D03               	skipz
  4664     069C  2EA3               	goto	u1655
  4665     069D  0826               	movf	___lldiv@divisor+1,w
  4666     069E  022A               	subwf	___lldiv@dividend+1,w
  4667     069F  1D03               	skipz
  4668     06A0  2EA3               	goto	u1655
  4669     06A1  0825               	movf	___lldiv@divisor,w
  4670     06A2  0229               	subwf	___lldiv@dividend,w
  4671     06A3                     u1655:
  4672     06A3  1C03               	skipc
  4673     06A4  2EA6               	goto	u1651
  4674     06A5  2EA7               	goto	u1650
  4675     06A6                     u1651:
  4676     06A6  2EB6               	goto	l1645
  4677     06A7                     u1650:
  4678     06A7                     l1641:
  4679     06A7  0825               	movf	___lldiv@divisor,w
  4680     06A8  02A9               	subwf	___lldiv@dividend,f
  4681     06A9  0826               	movf	___lldiv@divisor+1,w
  4682     06AA  1C03               	skipc
  4683     06AB  0F26               	incfsz	___lldiv@divisor+1,w
  4684     06AC  02AA               	subwf	___lldiv@dividend+1,f
  4685     06AD  0827               	movf	___lldiv@divisor+2,w
  4686     06AE  1C03               	skipc
  4687     06AF  0F27               	incfsz	___lldiv@divisor+2,w
  4688     06B0  02AB               	subwf	___lldiv@dividend+2,f
  4689     06B1  0828               	movf	___lldiv@divisor+3,w
  4690     06B2  1C03               	skipc
  4691     06B3  0F28               	incfsz	___lldiv@divisor+3,w
  4692     06B4  02AC               	subwf	___lldiv@dividend+3,f
  4693     06B5                     l1643:
  4694     06B5  142E               	bsf	___lldiv@quotient,0
  4695     06B6                     l1645:
  4696     06B6  3001               	movlw	1
  4697     06B7                     u1665:
  4698     06B7  1003               	clrc
  4699     06B8  0CA8               	rrf	___lldiv@divisor+3,f
  4700     06B9  0CA7               	rrf	___lldiv@divisor+2,f
  4701     06BA  0CA6               	rrf	___lldiv@divisor+1,f
  4702     06BB  0CA5               	rrf	___lldiv@divisor,f
  4703     06BC  3EFF               	addlw	-1
  4704     06BD  1D03               	skipz
  4705     06BE  2EB7               	goto	u1665
  4706     06BF                     l1647:
  4707     06BF  3001               	movlw	1
  4708     06C0  02B2               	subwf	___lldiv@counter,f
  4709     06C1  1D03               	btfss	3,2
  4710     06C2  2EC4               	goto	u1671
  4711     06C3  2EC5               	goto	u1670
  4712     06C4                     u1671:
  4713     06C4  2E8C               	goto	l1637
  4714     06C5                     u1670:
  4715     06C5                     l1649:
  4716     06C5  0831               	movf	___lldiv@quotient+3,w
  4717     06C6  00A8               	movwf	?___lldiv+3
  4718     06C7  0830               	movf	___lldiv@quotient+2,w
  4719     06C8  00A7               	movwf	?___lldiv+2
  4720     06C9  082F               	movf	___lldiv@quotient+1,w
  4721     06CA  00A6               	movwf	?___lldiv+1
  4722     06CB  082E               	movf	___lldiv@quotient,w
  4723     06CC  00A5               	movwf	?___lldiv
  4724     06CD                     l317:
  4725     06CD  0008               	return
  4726     06CE                     __end_of___lldiv:
  4727                           
  4728                           	psect	text20
  4729     0E35                     __ptext20:	
  4730 ;; *************** function _ADC_Read *****************
  4731 ;; Defined at:
  4732 ;;		line 24 in file "ADC_Lib.c"
  4733 ;; Parameters:    Size  Location     Type
  4734 ;;  channel         1    wreg     unsigned char 
  4735 ;; Auto vars:     Size  Location     Type
  4736 ;;  channel         1    5[COMMON] unsigned char 
  4737 ;; Return value:  Size  Location     Type
  4738 ;;                  2    2[COMMON] unsigned int 
  4739 ;; Registers used:
  4740 ;;		wreg, status,2, status,0
  4741 ;; Tracked objects:
  4742 ;;		On entry : 0/0
  4743 ;;		On exit  : 0/0
  4744 ;;		Unchanged: 0/0
  4745 ;; Data sizes:     COMMON   BANK0   BANK1   BANK3   BANK2
  4746 ;;      Params:         2       0       0       0       0
  4747 ;;      Locals:         1       0       0       0       0
  4748 ;;      Temps:          1       0       0       0       0
  4749 ;;      Totals:         4       0       0       0       0
  4750 ;;Total ram usage:        4 bytes
  4751 ;; Hardware stack levels used: 1
  4752 ;; Hardware stack levels required when called: 1
  4753 ;; This function calls:
  4754 ;;		Nothing
  4755 ;; This function is called by:
  4756 ;;		_ACS712_Calibrate
  4757 ;;		_ACS712_ReadAC
  4758 ;; This function uses a non-reentrant model
  4759 ;;
  4760                           
  4761     0E35                     _ADC_Read:	
  4762                           ;psect for function _ADC_Read
  4763                           
  4764                           
  4765                           ;incstack = 0
  4766                           ; Regs used in _ADC_Read: [wreg+status,2+status,0]
  4767                           ;ADC_Read@channel stored from wreg
  4768     0E35  00F5               	movwf	ADC_Read@channel
  4769     0E36                     l1667:
  4770                           
  4771                           ;ADC_Lib.c: 28:     ADCON0 &= 0b11000111;
  4772     0E36  30C7               	movlw	199
  4773     0E37  1283               	bcf	3,5	;RP0=0, select bank0
  4774     0E38  1303               	bcf	3,6	;RP1=0, select bank0
  4775     0E39  059F               	andwf	31,f	;volatile
  4776                           
  4777                           ;ADC_Lib.c: 29:     ADCON0 |= (channel << 3);
  4778     0E3A  0875               	movf	ADC_Read@channel,w	;volatile
  4779     0E3B  00F4               	movwf	??_ADC_Read
  4780     0E3C  3002               	movlw	2
  4781     0E3D                     u1725:
  4782     0E3D  1003               	clrc
  4783     0E3E  0DF4               	rlf	??_ADC_Read,f
  4784     0E3F  3EFF               	addlw	-1
  4785     0E40  1D03               	skipz
  4786     0E41  2E3D               	goto	u1725
  4787     0E42  1003               	clrc
  4788     0E43  0D74               	rlf	??_ADC_Read,w
  4789     0E44  049F               	iorwf	31,f	;volatile
  4790     0E45                     l1669:
  4791                           
  4792                           ;ADC_Lib.c: 34:     _delay((unsigned long)((20)*(8000000/4000000.0)));
  4793     0E45  300D               	movlw	13
  4794     0E46  00F4               	movwf	??_ADC_Read
  4795     0E47                     u2407:
  4796     0E47  0BF4               	decfsz	??_ADC_Read,f
  4797     0E48  2E47               	goto	u2407
  4798     0E49                     l1671:
  4799                           
  4800                           ;ADC_Lib.c: 37:     ADCON0bits.GO_nDONE = 1;
  4801     0E49  1283               	bcf	3,5	;RP0=0, select bank0
  4802     0E4A  1303               	bcf	3,6	;RP1=0, select bank0
  4803     0E4B  151F               	bsf	31,2	;volatile
  4804     0E4C                     l274:	
  4805                           ;ADC_Lib.c: 40:     while (ADCON0bits.GO_nDONE);
  4806                           
  4807     0E4C  191F               	btfsc	31,2	;volatile
  4808     0E4D  2E4F               	goto	u1731
  4809     0E4E  2E50               	goto	u1730
  4810     0E4F                     u1731:
  4811     0E4F  2E4C               	goto	l274
  4812     0E50                     u1730:
  4813     0E50                     l1673:
  4814                           
  4815                           ;ADC_Lib.c: 44:     return ((unsigned int)ADRESH << 8) + ADRESL;
  4816     0E50  081E               	movf	30,w	;volatile
  4817     0E51  00F3               	movwf	?_ADC_Read+1
  4818     0E52  1683               	bsf	3,5	;RP0=1, select bank1
  4819     0E53  1303               	bcf	3,6	;RP1=0, select bank1
  4820     0E54  081E               	movf	30,w	;volatile
  4821     0E55  00F2               	movwf	?_ADC_Read
  4822     0E56                     l277:
  4823     0E56  0008               	return
  4824     0E57                     __end_of_ADC_Read:
  4825                           
  4826                           	psect	text21
  4827     0E7C                     __ptext21:	
  4828 ;; *************** function _ISR *****************
  4829 ;; Defined at:
  4830 ;;		line 12 in file "Timer_lib.c"
  4831 ;; Parameters:    Size  Location     Type
  4832 ;;		None
  4833 ;; Auto vars:     Size  Location     Type
  4834 ;;		None
  4835 ;; Return value:  Size  Location     Type
  4836 ;;                  1    wreg      void 
  4837 ;; Registers used:
  4838 ;;		wreg, status,2, status,0
  4839 ;; Tracked objects:
  4840 ;;		On entry : 0/0
  4841 ;;		On exit  : 0/0
  4842 ;;		Unchanged: 0/0
  4843 ;; Data sizes:     COMMON   BANK0   BANK1   BANK3   BANK2
  4844 ;;      Params:         0       0       0       0       0
  4845 ;;      Locals:         0       0       0       0       0
  4846 ;;      Temps:          2       0       0       0       0
  4847 ;;      Totals:         2       0       0       0       0
  4848 ;;Total ram usage:        2 bytes
  4849 ;; Hardware stack levels used: 1
  4850 ;; This function calls:
  4851 ;;		Nothing
  4852 ;; This function is called by:
  4853 ;;		Interrupt level 1
  4854 ;; This function uses a non-reentrant model
  4855 ;;
  4856                           
  4857     0E7C                     _ISR:	
  4858                           ;psect for function _ISR
  4859                           
  4860     0E7C                     i1l1619:
  4861                           
  4862                           ;Timer_lib.c: 13:     if (TMR0IF) {
  4863     0E7C  1D0B               	btfss	11,2	;volatile
  4864     0E7D  2E7F               	goto	u159_21
  4865     0E7E  2E80               	goto	u159_20
  4866     0E7F                     u159_21:
  4867     0E7F  2EA8               	goto	i1l194
  4868     0E80                     u159_20:
  4869     0E80                     i1l1621:
  4870                           
  4871                           ;Timer_lib.c: 14:         TMR0IF = 0;
  4872     0E80  110B               	bcf	11,2	;volatile
  4873     0E81                     i1l1623:
  4874                           
  4875                           ;Timer_lib.c: 18:         if (current_freq_mhz == 8) {
  4876     0E81  3008               	movlw	8
  4877     0E82  067B               	xorwf	_current_freq_mhz,w	;volatile
  4878     0E83  1D03               	btfss	3,2
  4879     0E84  2E86               	goto	u160_21
  4880     0E85  2E87               	goto	u160_20
  4881     0E86                     u160_21:
  4882     0E86  2E98               	goto	i1l1627
  4883     0E87                     u160_20:
  4884     0E87                     i1l1625:
  4885                           
  4886                           ;Timer_lib.c: 19:             micros_counter += 128;
  4887     0E87  3080               	movlw	128
  4888     0E88  1683               	bsf	3,5	;RP0=1, select bank1
  4889     0E89  1303               	bcf	3,6	;RP1=0, select bank1
  4890     0E8A  07C8               	addwf	_micros_counter^(0+128),f	;volatile
  4891     0E8B  3000               	movlw	0
  4892     0E8C  1803               	skipnc
  4893     0E8D  3001               	movlw	1
  4894     0E8E  07C9               	addwf	(_micros_counter+1)^(0+128),f	;volatile
  4895     0E8F  3000               	movlw	0
  4896     0E90  1803               	skipnc
  4897     0E91  3001               	movlw	1
  4898     0E92  07CA               	addwf	(_micros_counter+2)^(0+128),f	;volatile
  4899     0E93  3000               	movlw	0
  4900     0E94  1803               	skipnc
  4901     0E95  3001               	movlw	1
  4902     0E96  07CB               	addwf	(_micros_counter+3)^(0+128),f	;volatile
  4903                           
  4904                           ;Timer_lib.c: 20:         } else {
  4905     0E97  2EA8               	goto	i1l194
  4906     0E98                     i1l1627:
  4907                           
  4908                           ;Timer_lib.c: 21:             micros_counter += 256;
  4909     0E98  3000               	movlw	0
  4910     0E99  1683               	bsf	3,5	;RP0=1, select bank1
  4911     0E9A  1303               	bcf	3,6	;RP1=0, select bank1
  4912     0E9B  07C8               	addwf	_micros_counter^(0+128),f	;volatile
  4913     0E9C  3001               	movlw	1
  4914     0E9D  1803               	skipnc
  4915     0E9E  3002               	movlw	2
  4916     0E9F  07C9               	addwf	(_micros_counter+1)^(0+128),f	;volatile
  4917     0EA0  3000               	movlw	0
  4918     0EA1  1803               	skipnc
  4919     0EA2  3001               	movlw	1
  4920     0EA3  07CA               	addwf	(_micros_counter+2)^(0+128),f	;volatile
  4921     0EA4  3000               	movlw	0
  4922     0EA5  1803               	skipnc
  4923     0EA6  3001               	movlw	1
  4924     0EA7  07CB               	addwf	(_micros_counter+3)^(0+128),f	;volatile
  4925     0EA8                     i1l194:
  4926     0EA8  0871               	movf	??_ISR+1,w
  4927     0EA9  008A               	movwf	10
  4928     0EAA  0E70               	swapf	??_ISR,w
  4929     0EAB  0083               	movwf	3
  4930     0EAC  0EFE               	swapf	btemp,f
  4931     0EAD  0E7E               	swapf	btemp,w
  4932     0EAE  0009               	retfie
  4933     0EAF                     __end_of_ISR:
  4934     0001                     ___latbits      equ	1
  4935     007E                     btemp           set	126	;btemp
  4936     007E                     wtemp0          set	126
  4937                           
  4938                           	psect	intentry
  4939     0004                     __pintentry:	
  4940                           ;incstack = 0
  4941                           ; Regs used in _ISR: [wreg+status,2+status,0]
  4942                           
  4943     0004                     interrupt_function:
  4944     007E                     saved_w         set	btemp
  4945     0004  00FE               	movwf	btemp
  4946     0005  0E03               	swapf	3,w
  4947     0006  00F0               	movwf	??_ISR
  4948     0007  080A               	movf	10,w
  4949     0008  00F1               	movwf	??_ISR+1
  4950     0009  158A  2E7C         	ljmp	_ISR
  4951                           
  4952                           	psect	idloc
  4953                           
  4954                           ;Config register IDLOC0 @ 0x2000
  4955                           ;	unspecified, using default values
  4956     2000                     	org	8192
  4957     2000  3FFF               	dw	16383
  4958                           
  4959                           ;Config register IDLOC1 @ 0x2001
  4960                           ;	unspecified, using default values
  4961     2001                     	org	8193
  4962     2001  3FFF               	dw	16383
  4963                           
  4964                           ;Config register IDLOC2 @ 0x2002
  4965                           ;	unspecified, using default values
  4966     2002                     	org	8194
  4967     2002  3FFF               	dw	16383
  4968                           
  4969                           ;Config register IDLOC3 @ 0x2003
  4970                           ;	unspecified, using default values
  4971     2003                     	org	8195
  4972     2003  3FFF               	dw	16383
  4973                           
  4974                           	psect	config
  4975                           
  4976                           ;Config register CONFIG1 @ 0x2007
  4977                           ;	Oscillator Selection bits
  4978                           ;	FOSC = INTOSCIO, INTRC oscillator; port I/O function on both RA6/OSC2/CLKO pin and RA7
      +                          /OSC1/CLKI pin
  4979                           ;	Watchdog Timer Enable bit
  4980                           ;	WDTE = OFF, WDT disabled
  4981                           ;	Power-up Timer Enable bit
  4982                           ;	PWRTE = ON, PWRT enabled
  4983                           ;	RA5/MCLR/VPP Pin Function Select bit
  4984                           ;	MCLRE = ON, RA5/MCLR/VPP pin function is MCLR
  4985                           ;	Brown-out Reset Enable bit
  4986                           ;	BOREN = OFF, BOR disabled
  4987                           ;	Low-Voltage Programming Enable bit
  4988                           ;	LVP = OFF, RB3 is digital I/O, HV on MCLR must be used for programming
  4989                           ;	Data EE Memory Code Protection bit
  4990                           ;	CPD = OFF, Code protection off
  4991                           ;	Flash Program Memory Write Enable bits
  4992                           ;	WRT = OFF, Write protection off
  4993                           ;	In-Circuit Debugger Mode bit
  4994                           ;	DEBUG = 0x1, unprogrammed default
  4995                           ;	CCP1 Pin Selection bit
  4996                           ;	CCPMX = RB0, CCP1 function on RB0
  4997                           ;	Flash Program Memory Code Protection bit
  4998                           ;	CP = OFF, Code protection off
  4999     2007                     	org	8199
  5000     2007  3F30               	dw	16176
  5001                           
  5002                           ;Config register CONFIG2 @ 0x2008
  5003                           ;	Fail-Safe Clock Monitor Enable bit
  5004                           ;	FCMEN = OFF, Fail-Safe Clock Monitor disabled
  5005                           ;	Internal External Switchover bit
  5006                           ;	IESO = OFF, Internal External Switchover mode disabled
  5007     2008                     	org	8200
  5008     2008  3FFC               	dw	16380

Data Sizes:
    Strings     84
    Constant    4
    Data        1
    BSS         13
    Persistent  0
    Stack       0

Auto Spaces:
    Space          Size  Autos    Used
    COMMON           14     11      12
    BANK0            80     80      80
    BANK1            80     40      53
    BANK3            96      0       0
    BANK2            96      0       0

Pointer List with Targets:

    ACS712_Calibrate@sensor	PTR struct . size(2) Largest target is 9
		 -> mySensor(BANK1[9]), 

    ACS712_Init@sensor	PTR struct . size(2) Largest target is 9
		 -> mySensor(BANK1[9]), 

    ACS712_ReadAC@sensor	PTR struct . size(2) Largest target is 9
		 -> mySensor(BANK1[9]), 

    ACS712_SetSensitivity@sensor	PTR struct . size(2) Largest target is 9
		 -> mySensor(BANK1[9]), 

    IntToText@buf	PTR unsigned char  size(1) Largest target is 10
		 -> main@buffer(BANK0[10]), 

    UART_Write_Text@text	PTR unsigned char  size(2) Largest target is 25
		 -> main@buffer(BANK0[10]), STR_1(CODE[25]), STR_2(CODE[17]), STR_3(CODE[19]), 
		 -> STR_4(CODE[8]), STR_5(CODE[10]), STR_6(CODE[5]), 


Critical Paths under _main in COMMON

    _UART_Write_Text->_UART_Write
    _IntToText->___awdiv
    _ACS712_ReadAC->___lmul
    _ACS712_Init->___awdiv
    ___lldiv->___lmul

Critical Paths under _ISR in COMMON

    None.

Critical Paths under _main in BANK0

    _main->_ACS712_ReadAC
    _millis->___lldiv
    _ACS712_ReadAC->_isqrt
    _isqrt->___lldiv
    _ACS712_Calibrate->___lldiv
    ___lldiv->_micros

Critical Paths under _ISR in BANK0

    None.

Critical Paths under _main in BANK1

    _main->_ACS712_ReadAC

Critical Paths under _ISR in BANK1

    None.

Critical Paths under _main in BANK3

    None.

Critical Paths under _ISR in BANK3

    None.

Critical Paths under _main in BANK2

    None.

Critical Paths under _ISR in BANK2

    None.

Call Graph Tables:

 ---------------------------------------------------------------------------------
 (Depth) Function   	        Calls       Base Space   Used Autos Params    Refs
 ---------------------------------------------------------------------------------
 (0) _main                                                34    34      0    7205
                                             46 BANK0     34    34      0
                   _ACS712_Calibrate
                        _ACS712_Init
                      _ACS712_ReadAC
              _ACS712_SetSensitivity
                           _ADC_Init
                          _IntToText
                          _Time_Init
                          _UART_Init
                         _UART_Write
                    _UART_Write_Text
                            ___lldiv
                            ___lwdiv
                            ___lwmod
                             _millis
 ---------------------------------------------------------------------------------
 (1) _millis                                               4     0      4     444
                                             19 BANK0      4     0      4
                            ___lldiv
                             _micros
 ---------------------------------------------------------------------------------
 (1) ___lwmod                                              5     1      4     238
                                              2 COMMON     5     1      4
 ---------------------------------------------------------------------------------
 (1) ___lwdiv                                              7     3      4     247
                                              2 COMMON     7     3      4
 ---------------------------------------------------------------------------------
 (1) _UART_Write_Text                                      7     5      2     201
                                              3 COMMON     7     5      2
                         _UART_Write
 ---------------------------------------------------------------------------------
 (2) _UART_Write                                           1     1      0      47
                                              2 COMMON     1     1      0
 ---------------------------------------------------------------------------------
 (1) _UART_Init                                            0     0      0       0
 ---------------------------------------------------------------------------------
 (1) _Time_Init                                            1     1      0     141
                                              2 COMMON     1     1      0
 ---------------------------------------------------------------------------------
 (1) _IntToText                                           14    11      3    1809
                                              0 BANK0     14    11      3
                            ___awdiv
                            ___awmod
 ---------------------------------------------------------------------------------
 (2) ___awmod                                              6     2      4     439
                                              2 COMMON     6     2      4
 ---------------------------------------------------------------------------------
 (1) _ADC_Init                                             0     0      0       0
 ---------------------------------------------------------------------------------
 (1) _ACS712_SetSensitivity                                6     2      4      68
                                              2 COMMON     6     2      4
 ---------------------------------------------------------------------------------
 (1) _ACS712_ReadAC                                       51    48      3    1862
                                             35 BANK0     11     8      3
                                              0 BANK1     40    40      0
                           _ADC_Read
                            ___lldiv
                             ___lmul
                              _isqrt
                             _micros
 ---------------------------------------------------------------------------------
 (2) _micros                                              10     6      4     161
                                              2 COMMON     5     1      4
                                              0 BANK0      5     5      0
 ---------------------------------------------------------------------------------
 (2) _isqrt                                               16    12      4     577
                                             19 BANK0     16    12      4
                            ___lldiv
 ---------------------------------------------------------------------------------
 (2) ___lmul                                              13     5      8     154
                                              2 COMMON     9     1      8
                                              0 BANK0      4     4      0
 ---------------------------------------------------------------------------------
 (1) _ACS712_Init                                          9     2      7     748
                                              0 BANK0      9     2      7
                            ___awdiv
 ---------------------------------------------------------------------------------
 (2) ___awdiv                                              8     4      4     457
                                              2 COMMON     8     4      4
 ---------------------------------------------------------------------------------
 (1) _ACS712_Calibrate                                    12    10      2     503
                                             19 BANK0     12    10      2
                           _ADC_Read
                            ___lldiv
 ---------------------------------------------------------------------------------
 (2) ___lldiv                                             14     6      8     283
                                              5 BANK0     14     6      8
                             ___lmul (ARG)
                             _micros (ARG)
 ---------------------------------------------------------------------------------
 (2) _ADC_Read                                             4     2      2      47
                                              2 COMMON     4     2      2
 ---------------------------------------------------------------------------------
 Estimated maximum stack depth 2
 ---------------------------------------------------------------------------------
 (Depth) Function   	        Calls       Base Space   Used Autos Params    Refs
 ---------------------------------------------------------------------------------
 (4) _ISR                                                  2     2      0       0
                                              0 COMMON     2     2      0
 ---------------------------------------------------------------------------------
 Estimated maximum stack depth 4
 ---------------------------------------------------------------------------------

 Call Graph Graphs:

 _main (ROOT)
   _ACS712_Calibrate
     _ADC_Read
     ___lldiv
       ___lmul (ARG)
       _micros (ARG)
   _ACS712_Init
     ___awdiv
   _ACS712_ReadAC
     _ADC_Read
     ___lldiv
     ___lmul
     _isqrt
       ___lldiv
     _micros
   _ACS712_SetSensitivity
   _ADC_Init
   _IntToText
     ___awdiv
     ___awmod
   _Time_Init
   _UART_Init
   _UART_Write
   _UART_Write_Text
     _UART_Write
   ___lldiv
   ___lwdiv
   ___lwmod
   _millis
     ___lldiv
     _micros

 _ISR (ROOT)

Address spaces:
Name               Size   Autos  Total    Usage
BANK3               96      0       0      0.0%
BITBANK3            96      0       0      0.0%
BANK2               96      0       0      0.0%
BITBANK2            96      0       0      0.0%
BANK1               80     40      53     66.2%
BITBANK1            80      0       0      0.0%
BANK0               80     80      80    100.0%
BITBANK0            80      0       0      0.0%
COMMON              14     11      12     85.7%
BITCOMMON           14      0       0      0.0%
DATA                 0      0     140      0.0%
STACK                0      0       0      0.0%


Microchip Technology PIC Macro Assembler V3.00 build 20241204225717 
Symbol Table                                                                                   Fri Jan 16 02:56:46 2026

                              pc 0002                               l10 057B                               l21 05EE  
                             l13 078F                               l32 0282                               l16 07F9  
                             l70 0482                               l65 043C                               l66 04E1  
                   ___awdiv@sign 0077                               fsr 0004                              l200 0E34  
                            l210 0E7B                              l203 0FB1                              l206 0FFF  
                            l241 05FA                              l235 0E1A                              l317 06CD  
                            l238 05F0                              l271 0E08                              l256 0F22  
                            l274 0E4C                              l434 0730                              l277 0E56  
                            l295 0FB0                              l447 07E6                              l561 0F64  
                            l571 0EE6                              _GIE 005F                              _ISR 0E7C  
                            fsr0 0004                              indf 0000                     ___awmod@sign 0077  
              main@currentMillis 0066                             ?_ISR 0070                             l2001 02BF  
                           l2011 0317                             l2003 02C8                             l2013 031E  
                           l2005 02D2                             l2031 0377                             l2015 0327  
                           l2007 02DF                             l2041 03BF                             l2033 0392  
                           l2025 033A                             l2009 030D                             l2017 032E  
                           l2051 03E7                             l2043 03C6                             l2035 039B  
                           l2027 0364                             l2019 0338                             l2061 040C  
                           l2053 03EB                             l2045 03D1                             l2037 039D  
                           l2029 036A                             l2063 0413                             l2055 03F6  
                           l2047 03D8                             l2039 03AE                             l2057 03FA  
                           l2049 03DC                             l2059 0405                             l1701 0F8C  
                           l1631 067A                             l1711 06CF                             l1703 0F95  
                           l1641 06A7                             l1633 067D                             l1721 06E3  
                           l1713 06D3                             l1705 0FA6                             l1801 07E7  
                           l1643 06B5                             l1635 0688                             l1811 0588  
                           l1803 057C                             l1731 06F7                             l1723 06E5  
                           l1715 06D8                             l1645 06B6                             l1637 068C  
                           l1629 0668                             l1813 05B2                             l1805 0586  
                           l1741 0715                             l1733 06F9                             l1725 06E7  
                           l1717 06DA                             l1709 06CE                             l1661 0561  
                           l1653 04E2                             l1821 002B                             l1901 04C7  
                           l1671 0E49                             l1647 06BF                             l1639 0695  
                           l1815 05B8                             l1743 071C                             l1735 06FD  
                           l1727 06ED                             l1719 06DE                             l1663 0573  
                           l1655 04EC                             l1831 0053                             l1823 0036  
                           l1903 04CD                             l1911 0E1C                             l1673 0E50  
                           l1649 06C5                             l1817 05C5                             l1737 070E  
                           l1729 06F0                             l1745 0722                             l1657 0518  
                           l1681 0FD9                             l1841 00A3                             l1833 005B  
                           l1825 003C                             l1761 079C                             l1753 0790  
                           l1905 04D3                             l1921 0E31                             l1913 0E22  
                           l1667 0E36                             l1747 0727                             l1739 0714  
                           l1659 0520                             l1843 00CF                             l1835 0063  
                           l1819 0023                             l1771 07B5                             l1763 07A0  
                           l1755 0791                             l1923 0E32                             l1915 0E28  
                           l1907 0E09                             l1691 05F0                             l1931 0F02  
                           l1669 0E45                             l1749 072C                             l1677 0FB1  
                           l1853 0143                             l1837 0084                             l1845 00DD  
                           l1829 0046                             l1909 0E01                             l1781 07D2  
                           l1773 07B7                             l1765 07A5                             l1757 0795  
                           l1925 0E33                             l1917 0E2A                             l1693 05F6  
                           l1933 0F08                             l1941 0F25                             l1791 0731  
                           l1695 0F65                             l1687 0FEE                             l1679 0FD3  
                           l1855 01BD                             l1847 0134                             l1839 0095  
                           l1775 07BB                             l1767 07AB                             l1783 07D8  
                           l1759 079A                             l1871 0438                             l1863 0425  
                           l1919 0E2E                             l1927 0EE7                             l1951 0F3B  
                           l1943 0F2B                             l1935 0E57                             l1793 073A  
                           l1697 0F6F                             l1857 0224                             l1849 013E  
                           l1785 07DD                             l1777 07C5                             l1769 07AE  
                           l1881 0464                             l1865 0429                             l1929 0EEA  
                           l1953 0F4C                             l1945 0F2E                             l1961 0F60  
                           l1795 074C                             l1699 0F73                             l1859 0278  
                           l1787 07E2                             l1779 07CB                             l1891 049D  
                           l1875 0440                             l1883 0475                             l1867 042D  
                           l1955 0F52                             l1947 0F35                             l1939 0F23  
                           l1971 0EBF                             l1797 075E                             l1893 049F  
                           l1885 0488                             l1877 0446                             l1869 0433  
                           l1957 0F53                             l1949 0F37                             l1981 0EDC  
                           l1973 0EC1                             l1965 0EAF                             l1799 0770  
                           l1895 04A8                             l1887 0490                             l1879 045C  
                           l1959 0F5A                             l1975 0EC5                             l1967 0EB5  
                           l1983 0EE2                             l1991 0290                             l1897 04B2  
                           l1889 0496                             l1977 0ECF                             l1969 0EB8  
                           l1993 0294                             l1899 04C0                             l1979 0ED5  
                           l1995 029B                             l1987 0283                             l1997 02AD  
                           l1989 028A                             l1999 02B8                             STR_1 0614  
                           STR_2 0640                             STR_3 062D                             STR_4 065B  
                           STR_5 0651                             STR_6 0663                             _BRGH 04C2  
                           _CREN 00C4                             u2000 07DD                             u2001 07DC  
                           u2011 05A4                             u2020 05C5                             u2012 05AB  
                           u2100 0440                             u2021 05C4                             u2013 05B2  
                           u2101 043F                             u2030 002B                             u2110 0482  
                           u2031 002A                             u2111 0481                             u2040 003C  
                           u2120 0488                             u2025 05C1                             u2041 003B  
                           u2121 0487                             u2130 04E1                             u2210 0F3B  
                           u2051 00C1                             u2131 04E0                             u2115 047E  
                           u2211 0F3A                             u2052 00C8                             u2140 0E22  
                           u2061 00F7                             u2053 00CF                             u2141 0E21  
                           u2205 0F2F                             u2070 0134                             u2062 00FA  
                           u2150 0E28                             u2230 0F4C                             u2310 0EE2  
                           u2071 0133                             u2063 0101                             u2135 04DD  
                           u2151 0E27                             u2231 0F4B                             u2311 0EE1  
                           u2080 013E                             u2064 0104                             u2160 0EF4  
                           u2081 013D                             u2065 010B                             u2225 0F3C  
                           u2305 0ED6                             u2321 02EE                             u1610 067A  
                           u2066 010E                             u2090 0433                             u2170 0F12  
                           u2250 0F60                             u2330 030D                             u2322 02EF  
                           u1611 0679                             u2075 0130                             u2091 0432  
                           u2251 0F5F                             u2235 0F48                             u2331 030C  
                           u2323 02F4                             u1700 0556                             u2180 0F22  
                           u2260 0EB5                             u2324 02F5                             u2181 0F21  
                           u2245 0F54                             u2261 0EB4                             u2341 0356  
                           u2333 0309                             u2325 02FA                             u1630 068C  
                           u1710 0573                             u2190 0F2B                             u2350 0377  
                           u2342 035D                             u2326 02FB                             u2407 0E47  
                           u1631 068B                             u1711 0572                             u2191 0F2A  
                           u2351 0376                             u2343 0364                             u2280 0EC5  
                           u2360 039B                             u1625 067F                             u1705 0551  
                           u2281 0EC4                             u2361 039A                             u1730 0E50  
                           u1650 06A7                             u1810 0FA6                             u2290 0ECF  
                           u2370 03E7                             u1731 0E4F                             u1651 06A6  
                           u1811 0FA5                             u1715 056F                             u2291 0ECE  
                           u2275 0EB9                             u2371 03E6                             u2355 0373  
                           u1900 0722                             u1820 06D3                             u1740 0FD3  
                           u2380 03F6                             u1725 0E3D                             u1645 068E  
                           u1901 0721                             u1821 06D2                             u1805 0F96  
                           u1741 0FD2                             u2381 03F5                             u1670 06C5  
                           u1910 0727                             u1830 06DE                             u1750 0FD9  
                           u1671 06C4                             u1655 06A3                             u1911 0726  
                           u1831 06DD                             u1751 0FD8                             u2295 0ECB  
                           u1840 06ED                             u1680 04FB                             u1920 0795  
                           u1760 05F6                             u1665 06B7                             u1841 06EC  
                           u1681 04FC                             u1921 0794                             u1761 05F5  
                           u1770 0F73                             u1690 050C                             u1682 0501  
                           u1930 07A0                             u1771 0F72                             u1683 0502  
                           u1931 079F                             u1860 06FD                             u1940 07AB  
                           u1861 06FC                             u1781 0F7E                             u1941 07AA  
                           u2397 041B                             u1782 0F85                             u1855 06F1  
                           u1783 0F8C                             u1695 0507                             u1880 070E  
                           u1960 07BB                             u1881 070D                             u1961 07BA  
                           u1970 07C5                             u1875 06FE                             u1795 0F8E  
                           u1971 07C4                             u1955 07AF                             u1885 070A  
                           u1990 07D8                             u1895 0716                             u1991 07D7  
                           u1975 07C1                             u1985 07CC                             _TMR0 0001  
                           _SPEN 00C7                             _TRMT 04C1                             _TXEN 04C5  
                           _SYNC 04C4                             _main 0283                       IntToText@i 002C  
                     IntToText@n 0021          ACS712_ReadAC@start_time 00A0                             btemp 007E  
               __end_of_ADC_Init 0E09                 __end_of_ADC_Read 0E57                             start 000B  
             ACS712_ReadAC@count 00C0          __end_of_UART_Write_Text 0F23                            ??_ISR 0070  
                          ?_main 0070                  __end_of___awdiv 0731                  __end_of___awmod 07E7  
                          _ANSEL 009B                  __end_of___lldiv 06CE                  ___awdiv@divisor 0072  
             ACS712_Init@adc_res 0025                  __end_of___lwdiv 0F65                  __end_of___lwmod 0EE7  
                          i1l194 0EA8                  ___awdiv@counter 0076                            _SPBRG 0099  
                          _TXREG 0019               ACS712_Init@channel 0022              ___lmul@multiplicand 0076  
                    ?_UART_Write 0070                  ??_ACS712_ReadAC 0046                            _isqrt 04E2  
                          main@i 006A                            pclath 000A              ACS712_ReadAC@avg_sq 00A8  
                          status 0003                            wtemp0 007E              ACS712_ReadAC@sample 00C4  
            ACS712_ReadAC@sensor 0043      ACS712_SetSensitivity@sensor 0072                  __initialization 000D  
                   __end_of_main 0425          ??_ACS712_SetSensitivity 0076                           ??_main 004E  
                  main@amps_frac 006C                           _ADCON0 001F                           _ADCON1 009F  
                         _ADRESH 001E                           _ADRESL 009E                           ?_isqrt 0033  
               ___awdiv@dividend 0074                           i1l1621 0E80                           i1l1623 0E81  
                         i1l1625 0E87                           i1l1627 0E98                           i1l1619 0E7C  
                         u160_20 0E87                           u160_21 0E86                           u159_20 0E80  
                         u159_21 0E7F                           _OSCCON 008F                           _TMR0IE 005D  
                         _TMR0IF 005A                __end_of_UART_Init 0E1B                           ___lmul 0F65  
                      ??___awdiv 0076                        ??___awmod 0076                 ?_UART_Write_Text 0073  
                      ??___lldiv 002D                        ??___lwdiv 0076                        ??___lwmod 0076  
                ADC_Read@channel 0075                     IntToText@end 002A                     IntToText@buf 0020  
                         _micros 0FB1                           _millis 0E57                 ___awdiv@quotient 0078  
                ___awmod@divisor 0072                  ___awmod@counter 0076              ACS712_Init@v_ref_mv 0023  
                   __pdataCOMMON 007B                        ?_ADC_Init 0070                        ?_ADC_Read 0072  
                         isqrt@n 0033                           isqrt@x 003F                           isqrt@y 003B  
                         saved_w 007E          __end_of__initialization 0020             ACS712_ReadAC@rms_adc 00AC  
               _ACS712_Calibrate 057C          main@calibrationInterval 0610                   __pcstackCOMMON 0070  
                  ??_ACS712_Init 0027                    __end_of_isqrt 057C                __end_of_IntToText 04E2  
                     ??_ADC_Init 0072                       ??_ADC_Read 0074                          ??_isqrt 0037  
                     __pbssBANK1 00C8               main@previousMillis 005E                __end_of_Time_Init 0E35  
                 main@amps_whole 005C                       __pmaintext 0283                          ?___lmul 0072  
                     __pintentry 0004                          ?_micros 0072                   ___lmul@product 0020  
                        ?_millis 0033              __end_of_ACS712_Init 0790                     ??_UART_Write 0072  
              ACS712_Calibrate@i 003D                       __stringtab 0600                          ___awdiv 06CE  
                        ___awmod 0790                          ___lldiv 0668               __end_of_UART_Write 05FB  
                        ___lwdiv 0F23                          ___lwmod 0EAF                          __ptext1 0E57  
                        __ptext2 0EAF                          __ptext3 0F23                          __ptext4 0EE7  
                        __ptext5 05EF                          __ptext6 0E09                          __ptext7 0E1B  
                        __ptext8 0425                          __ptext9 0790    __end_of_ACS712_SetSensitivity 07FA  
                  IntToText@sign 0025                    IntToText@temp 0027                 ___awmod@dividend 0074  
             micros@tmr_snapshot 0024            __end_of_ACS712_ReadAC 0283             end_of_initialization 0020  
                ___lldiv@divisor 0025                  ___lldiv@counter 0032                      _ACS712_Init 0731  
                      _UART_Init 0E09  __end_ofmain@calibrationInterval 0614                   UART_Write@data 0072  
       __end_of_ACS712_Calibrate 05EF                        _TRISAbits 0085                        _TRISBbits 0086  
               _current_freq_mhz 007B                 micros@micros_now 0020                       main@buffer 0052  
                     main@ma_val 006E                       main@sum_ma 0062                ACS712_ReadAC@zero 00A4  
    ACS712_ReadAC@voltage_rms_mv 00B0                   __end_of___lmul 0FB1                       ?_UART_Init 0070  
                  __pidataCOMMON 07FA                   __end_of_micros 1000                   __end_of_millis 0E7C  
              ACS712_Init@sensor 0020              start_initialization 000D                      __end_of_ISR 0EAF  
                      _IntToText 0425                        _Time_Init 0E1B   ACS712_SetSensitivity@sens_mv_a 0074  
                       ??___lmul 007A                         ??_micros 0076                         ??_millis 007B  
                      ___latbits 0001                    __pcstackBANK0 0020                    __pcstackBANK1 00A0  
                     ?_IntToText 0020                 ___lwdiv@dividend 0074                       ?_Time_Init 0070  
                       ?___awdiv 0072                         ?___awmod 0072                         ?___lldiv 0025  
                       ?___lwdiv 0072                         ?___lwmod 0072         ACS712_ReadAC@accumulator 00B8  
                    ??_UART_Init 0072                        __pstrings 0600                         _ADC_Init 0E01  
                       _ADC_Read 0E35                 ___lwdiv@quotient 0077                ??_UART_Write_Text 0075  
              interrupt_function 0004                     Time_Init@mhz 0072                   _micros_counter 00C8  
                   ?_ACS712_Init 0020                       _ADCON0bits 001F                      __stringbase 060F  
          _ACS712_SetSensitivity 07E7                ?_ACS712_Calibrate 0033                      ??_IntToText 0023  
             ??_ACS712_Calibrate 0035                ___lmul@multiplier 0072           ACS712_Calibrate@sensor 0033  
                    ??_Time_Init 0072      ACS712_Calibrate@accumulator 0039               __end_of__stringtab 0610  
                ___lwdiv@divisor 0072                  ___lwdiv@counter 0076                         __ptext10 0E01  
                       __ptext11 07E7                         __ptext20 0E35                         __ptext12 0023  
                       __ptext21 0E7C                         __ptext13 0FB1                         __ptext14 04E2  
                       __ptext15 0F65                         __ptext16 0731                         __ptext17 06CE  
                       __ptext18 057C                         __ptext19 0668              UART_Write_Text@text 0073  
                 IntToText@start 0028                         _mySensor 00CC           ?_ACS712_SetSensitivity 0072  
                       intlevel1 0000                    _ACS712_ReadAC 0023                 ___lwmod@dividend 0074  
               ___lldiv@dividend 0029                        stringcode 060A          ACS712_ReadAC@current_mA 00B4  
                _UART_Write_Text 0EE7                       _OPTION_REG 0081                 ___lldiv@quotient 002E  
                ___lwmod@divisor 0072                  ___lwmod@counter 0076                         stringdir 060A  
                       stringtab 0600                       _UART_Write 05EF           ACS712_ReadAC@frequency 0045  
                 ?_ACS712_ReadAC 0043                 UART_Write_Text@i 0078           ACS712_ReadAC@period_us 00BC  
