

Microchip MPLAB XC8 Assembler V3.00 build 20241204225717 
                                                                                               Fri Jan 16 00:35:53 2026

Microchip MPLAB XC8 C Compiler v3.00 (Free license) build 20241204225717 Og1 
     1                           	processor	16F88
     2                           	pagewidth 120
     3                           	opt	flic
     4                           	psect	strings,global,class=STRING,space=0,delta=2,noexec
     5                           	psect	cinit,global,class=CODE,space=0,merge=1,delta=2
     6                           	psect	cstackCOMMON,global,class=COMMON,space=1,delta=1,noexec
     7                           	psect	maintext,global,class=CODE,space=0,split=1,delta=2
     8                           	psect	text1,local,class=CODE,space=0,merge=1,delta=2
     9                           	psect	text2,local,class=CODE,space=0,merge=1,delta=2
    10                           	psect	text3,local,class=CODE,space=0,merge=1,delta=2
    11                           	psect	text4,local,class=CODE,space=0,merge=1,delta=2
    12                           	psect	text5,local,class=CODE,space=0,merge=1,delta=2
    13                           	psect	idloc,global,abs,ovrld,class=IDLOC,space=5,delta=2,noexec
    14                           	psect	config,global,abs,ovrld,class=CONFIG,space=4,delta=2,noexec
    15                           	dabs	1,0x7E,2
    16     0000                     
    17                           ; Version 2.40
    18                           ; Generated 17/11/2021 GMT
    19                           ; 
    20                           ; Copyright © 2021, Microchip Technology Inc. and its subsidiaries ("Microchip")
    21                           ; All rights reserved.
    22                           ; 
    23                           ; This software is developed by Microchip Technology Inc. and its subsidiaries ("Microch
      +                          ip").
    24                           ; 
    25                           ; Redistribution and use in source and binary forms, with or without modification, are
    26                           ; permitted provided that the following conditions are met:
    27                           ; 
    28                           ;     1. Redistributions of source code must retain the above copyright notice, this lis
      +                          t of
    29                           ;        conditions and the following disclaimer.
    30                           ; 
    31                           ;     2. Redistributions in binary form must reproduce the above copyright notice, this 
      +                          list
    32                           ;        of conditions and the following disclaimer in the documentation and/or other
    33                           ;        materials provided with the distribution. Publication is not required when
    34                           ;        this file is used in an embedded application.
    35                           ; 
    36                           ;     3. Microchip's name may not be used to endorse or promote products derived from th
      +                          is
    37                           ;        software without specific prior written permission.
    38                           ; 
    39                           ; THIS SOFTWARE IS PROVIDED BY MICROCHIP "AS IS" AND ANY EXPRESS OR IMPLIED WARRANTIES,
    40                           ; INCLUDING, BUT NOT LIMITED TO, THE IMPLIED WARRANTIES OF MERCHANTABILITY AND FITNESS F
      +                          OR
    41                           ; PURPOSE ARE DISCLAIMED.  IN NO EVENT SHALL MICROCHIP BE LIABLE FOR ANY DIRECT, INDIREC
      +                          T,
    42                           ; INCIDENTAL, SPECIAL, EXEMPLARY, OR CONSEQUENTIAL DAMAGES (INCLUDING BUT NOT LIMITED TO
    43                           ; PROCUREMENT OF SUBSTITUTE GOODS OR SERVICES; LOSS OF USE, DATA OR PROFITS; OR BUSINESS
    44                           ; INTERRUPTION) HOWSOEVER CAUSED AND ON ANY THEORY OF LIABILITY, WHETHER IN CONTRACT, ST
      +                          RICT
    45                           ; LIABILITY, OR TORT (INCLUDING NEGLIGENCE OR OTHERWISE) ARISING IN ANY WAY OUT OF THE U
      +                          SE OF
    46                           ; THIS SOFTWARE, EVEN IF ADVISED OF THE POSSIBILITY OF SUCH DAMAGE.
    47                           ; 
    48                           ; 
    49                           ; Code-generator required, PIC16F88 Definitions
    50                           ; 
    51                           ; SFR Addresses
    52     0004                     fsr             equ	4
    53     0004                     fsr0            equ	4
    54     0000                     indf            equ	0
    55     0000                     indf0           equ	0
    56     0002                     pc              equ	2
    57     0002                     pcl             equ	2
    58     000A                     pclath          equ	10
    59     0003                     status          equ	3
    60     0000                     INDF            equ	0	;# 
    61     0001                     TMR0            equ	1	;# 
    62     0002                     PCL             equ	2	;# 
    63     0003                     STATUS          equ	3	;# 
    64     0004                     FSR             equ	4	;# 
    65     0005                     PORTA           equ	5	;# 
    66     0006                     PORTB           equ	6	;# 
    67     000A                     PCLATH          equ	10	;# 
    68     000B                     INTCON          equ	11	;# 
    69     000C                     PIR1            equ	12	;# 
    70     000D                     PIR2            equ	13	;# 
    71     000E                     TMR1            equ	14	;# 
    72     000E                     TMR1L           equ	14	;# 
    73     000F                     TMR1H           equ	15	;# 
    74     0010                     T1CON           equ	16	;# 
    75     0011                     TMR2            equ	17	;# 
    76     0012                     T2CON           equ	18	;# 
    77     0013                     SSPBUF          equ	19	;# 
    78     0014                     SSPCON          equ	20	;# 
    79     0015                     CCPR1           equ	21	;# 
    80     0015                     CCPR1L          equ	21	;# 
    81     0016                     CCPR1H          equ	22	;# 
    82     0017                     CCP1CON         equ	23	;# 
    83     0018                     RCSTA           equ	24	;# 
    84     0019                     TXREG           equ	25	;# 
    85     001A                     RCREG           equ	26	;# 
    86     001E                     ADRESH          equ	30	;# 
    87     001F                     ADCON0          equ	31	;# 
    88     0081                     OPTION_REG      equ	129	;# 
    89     0085                     TRISA           equ	133	;# 
    90     0086                     TRISB           equ	134	;# 
    91     008C                     PIE1            equ	140	;# 
    92     008D                     PIE2            equ	141	;# 
    93     008E                     PCON            equ	142	;# 
    94     008F                     OSCCON          equ	143	;# 
    95     0090                     OSCTUNE         equ	144	;# 
    96     0092                     PR2             equ	146	;# 
    97     0093                     SSPADD          equ	147	;# 
    98     0094                     SSPSTAT         equ	148	;# 
    99     0098                     TXSTA           equ	152	;# 
   100     0099                     SPBRG           equ	153	;# 
   101     009B                     ANSEL           equ	155	;# 
   102     009C                     CMCON           equ	156	;# 
   103     009D                     CVRCON          equ	157	;# 
   104     009E                     ADRESL          equ	158	;# 
   105     009F                     ADCON1          equ	159	;# 
   106     0105                     WDTCON          equ	261	;# 
   107     010C                     EEDATA          equ	268	;# 
   108     010D                     EEADR           equ	269	;# 
   109     010E                     EEDATH          equ	270	;# 
   110     010F                     EEADRH          equ	271	;# 
   111     018C                     EECON1          equ	396	;# 
   112     018D                     EECON2          equ	397	;# 
   113     0000                     INDF            equ	0	;# 
   114     0001                     TMR0            equ	1	;# 
   115     0002                     PCL             equ	2	;# 
   116     0003                     STATUS          equ	3	;# 
   117     0004                     FSR             equ	4	;# 
   118     0005                     PORTA           equ	5	;# 
   119     0006                     PORTB           equ	6	;# 
   120     000A                     PCLATH          equ	10	;# 
   121     000B                     INTCON          equ	11	;# 
   122     000C                     PIR1            equ	12	;# 
   123     000D                     PIR2            equ	13	;# 
   124     000E                     TMR1            equ	14	;# 
   125     000E                     TMR1L           equ	14	;# 
   126     000F                     TMR1H           equ	15	;# 
   127     0010                     T1CON           equ	16	;# 
   128     0011                     TMR2            equ	17	;# 
   129     0012                     T2CON           equ	18	;# 
   130     0013                     SSPBUF          equ	19	;# 
   131     0014                     SSPCON          equ	20	;# 
   132     0015                     CCPR1           equ	21	;# 
   133     0015                     CCPR1L          equ	21	;# 
   134     0016                     CCPR1H          equ	22	;# 
   135     0017                     CCP1CON         equ	23	;# 
   136     0018                     RCSTA           equ	24	;# 
   137     0019                     TXREG           equ	25	;# 
   138     001A                     RCREG           equ	26	;# 
   139     001E                     ADRESH          equ	30	;# 
   140     001F                     ADCON0          equ	31	;# 
   141     0081                     OPTION_REG      equ	129	;# 
   142     0085                     TRISA           equ	133	;# 
   143     0086                     TRISB           equ	134	;# 
   144     008C                     PIE1            equ	140	;# 
   145     008D                     PIE2            equ	141	;# 
   146     008E                     PCON            equ	142	;# 
   147     008F                     OSCCON          equ	143	;# 
   148     0090                     OSCTUNE         equ	144	;# 
   149     0092                     PR2             equ	146	;# 
   150     0093                     SSPADD          equ	147	;# 
   151     0094                     SSPSTAT         equ	148	;# 
   152     0098                     TXSTA           equ	152	;# 
   153     0099                     SPBRG           equ	153	;# 
   154     009B                     ANSEL           equ	155	;# 
   155     009C                     CMCON           equ	156	;# 
   156     009D                     CVRCON          equ	157	;# 
   157     009E                     ADRESL          equ	158	;# 
   158     009F                     ADCON1          equ	159	;# 
   159     0105                     WDTCON          equ	261	;# 
   160     010C                     EEDATA          equ	268	;# 
   161     010D                     EEADR           equ	269	;# 
   162     010E                     EEDATH          equ	270	;# 
   163     010F                     EEADRH          equ	271	;# 
   164     018C                     EECON1          equ	396	;# 
   165     018D                     EECON2          equ	397	;# 
   166     0000                     INDF            equ	0	;# 
   167     0001                     TMR0            equ	1	;# 
   168     0002                     PCL             equ	2	;# 
   169     0003                     STATUS          equ	3	;# 
   170     0004                     FSR             equ	4	;# 
   171     0005                     PORTA           equ	5	;# 
   172     0006                     PORTB           equ	6	;# 
   173     000A                     PCLATH          equ	10	;# 
   174     000B                     INTCON          equ	11	;# 
   175     000C                     PIR1            equ	12	;# 
   176     000D                     PIR2            equ	13	;# 
   177     000E                     TMR1            equ	14	;# 
   178     000E                     TMR1L           equ	14	;# 
   179     000F                     TMR1H           equ	15	;# 
   180     0010                     T1CON           equ	16	;# 
   181     0011                     TMR2            equ	17	;# 
   182     0012                     T2CON           equ	18	;# 
   183     0013                     SSPBUF          equ	19	;# 
   184     0014                     SSPCON          equ	20	;# 
   185     0015                     CCPR1           equ	21	;# 
   186     0015                     CCPR1L          equ	21	;# 
   187     0016                     CCPR1H          equ	22	;# 
   188     0017                     CCP1CON         equ	23	;# 
   189     0018                     RCSTA           equ	24	;# 
   190     0019                     TXREG           equ	25	;# 
   191     001A                     RCREG           equ	26	;# 
   192     001E                     ADRESH          equ	30	;# 
   193     001F                     ADCON0          equ	31	;# 
   194     0081                     OPTION_REG      equ	129	;# 
   195     0085                     TRISA           equ	133	;# 
   196     0086                     TRISB           equ	134	;# 
   197     008C                     PIE1            equ	140	;# 
   198     008D                     PIE2            equ	141	;# 
   199     008E                     PCON            equ	142	;# 
   200     008F                     OSCCON          equ	143	;# 
   201     0090                     OSCTUNE         equ	144	;# 
   202     0092                     PR2             equ	146	;# 
   203     0093                     SSPADD          equ	147	;# 
   204     0094                     SSPSTAT         equ	148	;# 
   205     0098                     TXSTA           equ	152	;# 
   206     0099                     SPBRG           equ	153	;# 
   207     009B                     ANSEL           equ	155	;# 
   208     009C                     CMCON           equ	156	;# 
   209     009D                     CVRCON          equ	157	;# 
   210     009E                     ADRESL          equ	158	;# 
   211     009F                     ADCON1          equ	159	;# 
   212     0105                     WDTCON          equ	261	;# 
   213     010C                     EEDATA          equ	268	;# 
   214     010D                     EEADR           equ	269	;# 
   215     010E                     EEDATH          equ	270	;# 
   216     010F                     EEADRH          equ	271	;# 
   217     018C                     EECON1          equ	396	;# 
   218     018D                     EECON2          equ	397	;# 
   219     001A                     _RCREG          set	26
   220     0019                     _TXREG          set	25
   221     0065                     _RCIF           set	101
   222     00C4                     _CREN           set	196
   223     00C7                     _SPEN           set	199
   224     0086                     _TRISBbits      set	134
   225     0099                     _SPBRG          set	153
   226     009B                     _ANSEL          set	155
   227     008F                     _OSCCON         set	143
   228     04C1                     _TRMT           set	1217
   229     04C5                     _TXEN           set	1221
   230     04C4                     _SYNC           set	1220
   231     04C2                     _BRGH           set	1218
   232                           
   233                           	psect	strings
   234     0002                     __pstrings:
   235     0002                     stringtab:
   236     0002                     __stringtab:
   237     0002                     stringcode:	
   238                           ;	String table - string pointers are 1 byte each
   239                           
   240     0002                     stringdir:
   241     0002  3000               	movlw	high stringdir
   242     0003  008A               	movwf	10
   243     0004  0804               	movf	4,w
   244     0005  0A84               	incf	4,f
   245     0006  0782               	addwf	2,f
   246     0007                     __stringbase:
   247     0007  3400               	retlw	0
   248     0008                     __end_of__stringtab:
   249     0008                     STR_1:
   250     0008  3448               	retlw	72	;'H'
   251     0009  3465               	retlw	101	;'e'
   252     000A  346C               	retlw	108	;'l'
   253     000B  346C               	retlw	108	;'l'
   254     000C  346F               	retlw	111	;'o'
   255     000D  3420               	retlw	32	;' '
   256     000E  3466               	retlw	102	;'f'
   257     000F  3472               	retlw	114	;'r'
   258     0010  346F               	retlw	111	;'o'
   259     0011  346D               	retlw	109	;'m'
   260     0012  3420               	retlw	32	;' '
   261     0013  344D               	retlw	77	;'M'
   262     0014  3450               	retlw	80	;'P'
   263     0015  344C               	retlw	76	;'L'
   264     0016  3441               	retlw	65	;'A'
   265     0017  3442               	retlw	66	;'B'
   266     0018  3420               	retlw	32	;' '
   267     0019  3458               	retlw	88	;'X'
   268     001A  3443               	retlw	67	;'C'
   269     001B  3438               	retlw	56	;'8'
   270     001C  3421               	retlw	33	;'!'
   271     001D  340D               	retlw	13
   272     001E  340A               	retlw	10
   273     001F  3400               	retlw	0
   274     0020                     STR_2:
   275     0020  3445               	retlw	69	;'E'
   276     0021  3463               	retlw	99	;'c'
   277     0022  3468               	retlw	104	;'h'
   278     0023  346F               	retlw	111	;'o'
   279     0024  343A               	retlw	58	;':'
   280     0025  3420               	retlw	32	;' '
   281     0026  3400               	retlw	0
   282                           
   283                           	psect	cinit
   284     07FD                     start_initialization:	
   285                           ; #config settings
   286                           
   287     07FD                     __initialization:
   288     07FD                     end_of_initialization:	
   289                           ;End of C runtime variable initialization code
   290                           
   291     07FD                     __end_of__initialization:
   292     07FD  0183               	clrf	3
   293     07FE  118A  2FC3         	ljmp	_main	;jump to C main() function
   294                           
   295                           	psect	cstackCOMMON
   296     0070                     __pcstackCOMMON:
   297     0070                     ?_UART_Init:
   298     0070                     ?_UART_Data_Ready:	
   299                           ; 1 bytes @ 0x0
   300                           
   301     0070                     ?_UART_Read:	
   302                           ; 1 bytes @ 0x0
   303                           
   304     0070                     ?_UART_Write:	
   305                           ; 1 bytes @ 0x0
   306                           
   307     0070                     ?_main:	
   308                           ; 1 bytes @ 0x0
   309                           
   310     0070                     UART_Write@data:	
   311                           ; 1 bytes @ 0x0
   312                           
   313     0070                     ??_UART_Init:	
   314                           ; 1 bytes @ 0x0
   315                           
   316     0070                     ??_UART_Data_Ready:	
   317                           ; 1 bytes @ 0x0
   318                           
   319     0070                     ??_UART_Read:	
   320                           ; 1 bytes @ 0x0
   321                           
   322     0070                     ??_UART_Write:	
   323                           ; 1 bytes @ 0x0
   324                           
   325                           
   326                           ; 1 bytes @ 0x0
   327     0070                     	ds	1
   328     0071                     ?_UART_Write_Text:
   329     0071                     UART_Write_Text@text:	
   330                           ; 1 bytes @ 0x1
   331                           
   332                           
   333                           ; 1 bytes @ 0x1
   334     0071                     	ds	1
   335     0072                     UART_Write_Text@i:
   336     0072                     ??_UART_Write_Text:	
   337                           ; 2 bytes @ 0x2
   338                           
   339                           
   340                           ; 1 bytes @ 0x2
   341     0072                     	ds	2
   342     0074                     ??_main:
   343                           
   344                           ; 1 bytes @ 0x4
   345     0074                     	ds	3
   346     0077                     main@c:
   347                           
   348                           ; 1 bytes @ 0x7
   349     0077                     	ds	1
   350                           
   351                           	psect	maintext
   352     07C3                     __pmaintext:	
   353 ;;
   354 ;;Main: autosize = 0, tempsize = 3, incstack = 0, save=0
   355 ;;
   356 ;; *************** function _main *****************
   357 ;; Defined at:
   358 ;;		line 26 in file "Test_main.c"
   359 ;; Parameters:    Size  Location     Type
   360 ;;		None
   361 ;; Auto vars:     Size  Location     Type
   362 ;;  c               1    7[COMMON] unsigned char 
   363 ;; Return value:  Size  Location     Type
   364 ;;                  1    wreg      void 
   365 ;; Registers used:
   366 ;;		wreg, fsr0l, fsr0h, status,2, status,0, pclath, cstack
   367 ;; Tracked objects:
   368 ;;		On entry : B00/0
   369 ;;		On exit  : 0/0
   370 ;;		Unchanged: 0/0
   371 ;; Data sizes:     COMMON   BANK0   BANK1   BANK3   BANK2
   372 ;;      Params:         0       0       0       0       0
   373 ;;      Locals:         1       0       0       0       0
   374 ;;      Temps:          3       0       0       0       0
   375 ;;      Totals:         4       0       0       0       0
   376 ;;Total ram usage:        4 bytes
   377 ;; Hardware stack levels required when called: 2
   378 ;; This function calls:
   379 ;;		_UART_Data_Ready
   380 ;;		_UART_Init
   381 ;;		_UART_Read
   382 ;;		_UART_Write
   383 ;;		_UART_Write_Text
   384 ;; This function is called by:
   385 ;;		Startup code after reset
   386 ;; This function uses a non-reentrant model
   387 ;;
   388                           
   389     07C3                     _main:	
   390                           ;psect for function _main
   391                           
   392     07C3                     l669:	
   393                           ;incstack = 0
   394                           ; Regs used in _main: [wreg-fsr0h+status,2+status,0+pclath+cstack]
   395                           
   396                           
   397                           ;Test_main.c: 28:     OSCCON = 0x70;
   398     07C3  3070               	movlw	112
   399     07C4  1683               	bsf	3,5	;RP0=1, select bank1
   400     07C5  1303               	bcf	3,6	;RP1=0, select bank1
   401     07C6  008F               	movwf	15	;volatile
   402     07C7                     l671:
   403                           
   404                           ;Test_main.c: 29:     ANSEL = 0x00;
   405     07C7  019B               	clrf	27	;volatile
   406     07C8                     l673:
   407                           
   408                           ;Test_main.c: 32:     UART_Init();
   409     07C8  118A  2793  118A   	fcall	_UART_Init
   410     07CB                     l675:
   411                           
   412                           ;Test_main.c: 36:         UART_Write_Text("Hello from MPLAB XC8!\r\n");
   413     07CB  3001               	movlw	(low ((STR_1-__stringbase)| (0+32768)))& (0+255)
   414     07CC  00F1               	movwf	UART_Write_Text@text
   415     07CD  118A  27A5  118A   	fcall	_UART_Write_Text
   416     07D0                     l677:
   417                           
   418                           ;Test_main.c: 37:         _delay((unsigned long)((1000)*(8000000/4000.0)));
   419     07D0  300B               	movlw	11
   420     07D1  00F6               	movwf	??_main+2
   421     07D2  3026               	movlw	38
   422     07D3  00F5               	movwf	??_main+1
   423     07D4  305D               	movlw	93
   424     07D5  00F4               	movwf	??_main
   425     07D6                     u77:
   426     07D6  0BF4               	decfsz	??_main,f
   427     07D7  2FD6               	goto	u77
   428     07D8  0BF5               	decfsz	??_main+1,f
   429     07D9  2FD6               	goto	u77
   430     07DA  0BF6               	decfsz	??_main+2,f
   431     07DB  2FD6               	goto	u77
   432     07DC  2FDD               	nop2
   433     07DD                     l679:
   434                           
   435                           ;Test_main.c: 40:         if (UART_Data_Ready()) {
   436     07DD  118A  2779  118A   	fcall	_UART_Data_Ready
   437     07E0  3A00               	xorlw	0
   438     07E1  1903               	skipnz
   439     07E2  2FE4               	goto	u61
   440     07E3  2FE5               	goto	u60
   441     07E4                     u61:
   442     07E4  2FCB               	goto	l675
   443     07E5                     u60:
   444     07E5                     l681:
   445                           
   446                           ;Test_main.c: 41:             char c = UART_Read();
   447     07E5  118A  277F  118A   	fcall	_UART_Read
   448     07E8  00F7               	movwf	main@c
   449     07E9                     l683:
   450                           
   451                           ;Test_main.c: 42:             UART_Write_Text("Echo: ");
   452     07E9  3019               	movlw	(low ((STR_2-__stringbase)| (0+32768)))& (0+255)
   453     07EA  00F1               	movwf	UART_Write_Text@text
   454     07EB  118A  27A5  118A   	fcall	_UART_Write_Text
   455     07EE                     l685:
   456                           
   457                           ;Test_main.c: 43:             UART_Write(c);
   458     07EE  0877               	movf	main@c,w
   459     07EF  118A  2787  118A   	fcall	_UART_Write
   460     07F2                     l687:
   461                           
   462                           ;Test_main.c: 44:             UART_Write('\r');
   463     07F2  300D               	movlw	13
   464     07F3  118A  2787  118A   	fcall	_UART_Write
   465     07F6                     l689:
   466                           
   467                           ;Test_main.c: 45:             UART_Write('\n');
   468     07F6  300A               	movlw	10
   469     07F7  118A  2787  118A   	fcall	_UART_Write
   470     07FA  2FCB               	goto	l675
   471     07FB  118A  2800         	ljmp	start
   472     07FD                     __end_of_main:
   473                           
   474                           	psect	text1
   475     07A5                     __ptext1:	
   476 ;; *************** function _UART_Write_Text *****************
   477 ;; Defined at:
   478 ;;		line 44 in file "UART_Lib.c"
   479 ;; Parameters:    Size  Location     Type
   480 ;;  text            1    1[COMMON] PTR unsigned char 
   481 ;;		 -> STR_2(7), STR_1(24), 
   482 ;; Auto vars:     Size  Location     Type
   483 ;;  i               2    2[COMMON] int 
   484 ;; Return value:  Size  Location     Type
   485 ;;                  1    wreg      void 
   486 ;; Registers used:
   487 ;;		wreg, fsr0l, fsr0h, status,2, status,0, pclath, cstack
   488 ;; Tracked objects:
   489 ;;		On entry : 0/0
   490 ;;		On exit  : 0/0
   491 ;;		Unchanged: 0/0
   492 ;; Data sizes:     COMMON   BANK0   BANK1   BANK3   BANK2
   493 ;;      Params:         1       0       0       0       0
   494 ;;      Locals:         2       0       0       0       0
   495 ;;      Temps:          0       0       0       0       0
   496 ;;      Totals:         3       0       0       0       0
   497 ;;Total ram usage:        3 bytes
   498 ;; Hardware stack levels used: 1
   499 ;; Hardware stack levels required when called: 1
   500 ;; This function calls:
   501 ;;		_UART_Write
   502 ;; This function is called by:
   503 ;;		_main
   504 ;; This function uses a non-reentrant model
   505 ;;
   506                           
   507     07A5                     _UART_Write_Text:	
   508                           ;psect for function _UART_Write_Text
   509                           
   510     07A5                     l661:	
   511                           ;incstack = 0
   512                           ; Regs used in _UART_Write_Text: [wreg-fsr0h+status,2+status,0+pclath+cstack]
   513                           
   514                           
   515                           ;UART_Lib.c: 45:     int i;;UART_Lib.c: 46:     for(i = 0; text[i] != '\0'; i++) {
   516     07A5  01F2               	clrf	UART_Write_Text@i
   517     07A6  01F3               	clrf	UART_Write_Text@i+1
   518     07A7  2FB7               	goto	l667
   519     07A8                     l663:
   520                           
   521                           ;UART_Lib.c: 47:         UART_Write(text[i]);
   522     07A8  0872               	movf	UART_Write_Text@i,w
   523     07A9  0771               	addwf	UART_Write_Text@text,w
   524     07AA  0084               	movwf	4
   525     07AB  118A  2002  118A   	fcall	stringdir
   526     07AE  118A  2787  118A   	fcall	_UART_Write
   527     07B1                     l665:
   528                           
   529                           ;UART_Lib.c: 48:     }
   530     07B1  3001               	movlw	1
   531     07B2  07F2               	addwf	UART_Write_Text@i,f
   532     07B3  1803               	skipnc
   533     07B4  0AF3               	incf	UART_Write_Text@i+1,f
   534     07B5  3000               	movlw	0
   535     07B6  07F3               	addwf	UART_Write_Text@i+1,f
   536     07B7                     l667:
   537     07B7  0872               	movf	UART_Write_Text@i,w
   538     07B8  0771               	addwf	UART_Write_Text@text,w
   539     07B9  0084               	movwf	4
   540     07BA  118A  2002  118A   	fcall	stringdir
   541     07BD  3A00               	xorlw	0
   542     07BE  1D03               	skipz
   543     07BF  2FC1               	goto	u51
   544     07C0  2FC2               	goto	u50
   545     07C1                     u51:
   546     07C1  2FA8               	goto	l663
   547     07C2                     u50:
   548     07C2                     l71:
   549     07C2  0008               	return
   550     07C3                     __end_of_UART_Write_Text:
   551                           
   552                           	psect	text2
   553     0787                     __ptext2:	
   554 ;; *************** function _UART_Write *****************
   555 ;; Defined at:
   556 ;;		line 27 in file "UART_Lib.c"
   557 ;; Parameters:    Size  Location     Type
   558 ;;  data            1    wreg     unsigned char 
   559 ;; Auto vars:     Size  Location     Type
   560 ;;  data            1    0[COMMON] unsigned char 
   561 ;; Return value:  Size  Location     Type
   562 ;;                  1    wreg      void 
   563 ;; Registers used:
   564 ;;		wreg
   565 ;; Tracked objects:
   566 ;;		On entry : 0/0
   567 ;;		On exit  : 0/0
   568 ;;		Unchanged: 0/0
   569 ;; Data sizes:     COMMON   BANK0   BANK1   BANK3   BANK2
   570 ;;      Params:         0       0       0       0       0
   571 ;;      Locals:         1       0       0       0       0
   572 ;;      Temps:          0       0       0       0       0
   573 ;;      Totals:         1       0       0       0       0
   574 ;;Total ram usage:        1 bytes
   575 ;; Hardware stack levels used: 1
   576 ;; This function calls:
   577 ;;		Nothing
   578 ;; This function is called by:
   579 ;;		_main
   580 ;;		_UART_Write_Text
   581 ;; This function uses a non-reentrant model
   582 ;;
   583                           
   584     0787                     _UART_Write:	
   585                           ;psect for function _UART_Write
   586                           
   587                           
   588                           ;incstack = 0
   589                           ; Regs used in _UART_Write: [wreg]
   590                           ;UART_Write@data stored from wreg
   591     0787  00F0               	movwf	UART_Write@data
   592     0788                     l615:
   593     0788                     l53:	
   594                           ;UART_Lib.c: 29:     while(!TRMT);
   595                           
   596     0788  1683               	bsf	3,5	;RP0=1, select bank1
   597     0789  1303               	bcf	3,6	;RP1=0, select bank1
   598     078A  1C98               	btfss	24,1	;volatile
   599     078B  2F8D               	goto	u11
   600     078C  2F8E               	goto	u10
   601     078D                     u11:
   602     078D  2F88               	goto	l53
   603     078E                     u10:
   604     078E                     l617:
   605                           
   606                           ;UART_Lib.c: 30:     TXREG = data;
   607     078E  0870               	movf	UART_Write@data,w
   608     078F  1283               	bcf	3,5	;RP0=0, select bank0
   609     0790  1303               	bcf	3,6	;RP1=0, select bank0
   610     0791  0099               	movwf	25	;volatile
   611     0792                     l56:
   612     0792  0008               	return
   613     0793                     __end_of_UART_Write:
   614                           
   615                           	psect	text3
   616     077F                     __ptext3:	
   617 ;; *************** function _UART_Read *****************
   618 ;; Defined at:
   619 ;;		line 38 in file "UART_Lib.c"
   620 ;; Parameters:    Size  Location     Type
   621 ;;		None
   622 ;; Auto vars:     Size  Location     Type
   623 ;;		None
   624 ;; Return value:  Size  Location     Type
   625 ;;                  1    wreg      unsigned char 
   626 ;; Registers used:
   627 ;;		wreg
   628 ;; Tracked objects:
   629 ;;		On entry : 0/0
   630 ;;		On exit  : 0/0
   631 ;;		Unchanged: 0/0
   632 ;; Data sizes:     COMMON   BANK0   BANK1   BANK3   BANK2
   633 ;;      Params:         0       0       0       0       0
   634 ;;      Locals:         0       0       0       0       0
   635 ;;      Temps:          0       0       0       0       0
   636 ;;      Totals:         0       0       0       0       0
   637 ;;Total ram usage:        0 bytes
   638 ;; Hardware stack levels used: 1
   639 ;; This function calls:
   640 ;;		Nothing
   641 ;; This function is called by:
   642 ;;		_main
   643 ;; This function uses a non-reentrant model
   644 ;;
   645                           
   646     077F                     _UART_Read:	
   647                           ;psect for function _UART_Read
   648                           
   649     077F                     l633:	
   650                           ;incstack = 0
   651                           ; Regs used in _UART_Read: [wreg]
   652                           
   653     077F                     l62:	
   654                           ;UART_Lib.c: 40:     while(!RCIF);
   655                           
   656     077F  1283               	bcf	3,5	;RP0=0, select bank0
   657     0780  1303               	bcf	3,6	;RP1=0, select bank0
   658     0781  1E8C               	btfss	12,5	;volatile
   659     0782  2F84               	goto	u31
   660     0783  2F85               	goto	u30
   661     0784                     u31:
   662     0784  2F7F               	goto	l62
   663     0785                     u30:
   664     0785                     l635:
   665                           
   666                           ;UART_Lib.c: 41:     return RCREG;
   667     0785  081A               	movf	26,w	;volatile
   668     0786                     l65:
   669     0786  0008               	return
   670     0787                     __end_of_UART_Read:
   671                           
   672                           	psect	text4
   673     0793                     __ptext4:	
   674 ;; *************** function _UART_Init *****************
   675 ;; Defined at:
   676 ;;		line 4 in file "UART_Lib.c"
   677 ;; Parameters:    Size  Location     Type
   678 ;;		None
   679 ;; Auto vars:     Size  Location     Type
   680 ;;		None
   681 ;; Return value:  Size  Location     Type
   682 ;;                  1    wreg      void 
   683 ;; Registers used:
   684 ;;		None
   685 ;; Tracked objects:
   686 ;;		On entry : 0/0
   687 ;;		On exit  : 0/0
   688 ;;		Unchanged: 0/0
   689 ;; Data sizes:     COMMON   BANK0   BANK1   BANK3   BANK2
   690 ;;      Params:         0       0       0       0       0
   691 ;;      Locals:         0       0       0       0       0
   692 ;;      Temps:          0       0       0       0       0
   693 ;;      Totals:         0       0       0       0       0
   694 ;;Total ram usage:        0 bytes
   695 ;; Hardware stack levels used: 1
   696 ;; This function calls:
   697 ;;		Nothing
   698 ;; This function is called by:
   699 ;;		_main
   700 ;; This function uses a non-reentrant model
   701 ;;
   702                           
   703     0793                     _UART_Init:	
   704                           ;psect for function _UART_Init
   705                           
   706     0793                     l619:	
   707                           ;incstack = 0
   708                           ; Regs used in _UART_Init: []
   709                           
   710                           
   711                           ;UART_Lib.c: 10:     BRGH = 1;
   712     0793  1683               	bsf	3,5	;RP0=1, select bank1
   713     0794  1303               	bcf	3,6	;RP1=0, select bank1
   714     0795  1518               	bsf	24,2	;volatile
   715                           
   716                           ;UART_Lib.c: 11:     SPBRG = 51;
   717     0796  3033               	movlw	51
   718     0797  0099               	movwf	25	;volatile
   719                           
   720                           ;UART_Lib.c: 15:     TRISBbits.TRISB2 = 1;
   721     0798  1506               	bsf	6,2	;volatile
   722                           
   723                           ;UART_Lib.c: 16:     TRISBbits.TRISB5 = 0;
   724     0799  1286               	bcf	6,5	;volatile
   725                           
   726                           ;UART_Lib.c: 19:     SYNC = 0;
   727     079A  1218               	bcf	24,4	;volatile
   728                           
   729                           ;UART_Lib.c: 20:     SPEN = 1;
   730     079B  1283               	bcf	3,5	;RP0=0, select bank0
   731     079C  1303               	bcf	3,6	;RP1=0, select bank0
   732     079D  1798               	bsf	24,7	;volatile
   733                           
   734                           ;UART_Lib.c: 23:     TXEN = 1;
   735     079E  1683               	bsf	3,5	;RP0=1, select bank1
   736     079F  1303               	bcf	3,6	;RP1=0, select bank1
   737     07A0  1698               	bsf	24,5	;volatile
   738                           
   739                           ;UART_Lib.c: 24:     CREN = 1;
   740     07A1  1283               	bcf	3,5	;RP0=0, select bank0
   741     07A2  1303               	bcf	3,6	;RP1=0, select bank0
   742     07A3  1618               	bsf	24,4	;volatile
   743     07A4                     l50:
   744     07A4  0008               	return
   745     07A5                     __end_of_UART_Init:
   746                           
   747                           	psect	text5
   748     0779                     __ptext5:	
   749 ;; *************** function _UART_Data_Ready *****************
   750 ;; Defined at:
   751 ;;		line 33 in file "UART_Lib.c"
   752 ;; Parameters:    Size  Location     Type
   753 ;;		None
   754 ;; Auto vars:     Size  Location     Type
   755 ;;		None
   756 ;; Return value:  Size  Location     Type
   757 ;;                  1    wreg      unsigned char 
   758 ;; Registers used:
   759 ;;		wreg
   760 ;; Tracked objects:
   761 ;;		On entry : 0/0
   762 ;;		On exit  : 0/0
   763 ;;		Unchanged: 0/0
   764 ;; Data sizes:     COMMON   BANK0   BANK1   BANK3   BANK2
   765 ;;      Params:         0       0       0       0       0
   766 ;;      Locals:         0       0       0       0       0
   767 ;;      Temps:          0       0       0       0       0
   768 ;;      Totals:         0       0       0       0       0
   769 ;;Total ram usage:        0 bytes
   770 ;; Hardware stack levels used: 1
   771 ;; This function calls:
   772 ;;		Nothing
   773 ;; This function is called by:
   774 ;;		_main
   775 ;; This function uses a non-reentrant model
   776 ;;
   777                           
   778     0779                     _UART_Data_Ready:	
   779                           ;psect for function _UART_Data_Ready
   780                           
   781     0779                     l629:	
   782                           ;incstack = 0
   783                           ; Regs used in _UART_Data_Ready: [wreg]
   784                           
   785                           
   786                           ;UART_Lib.c: 35:     return RCIF;
   787     0779  3000               	movlw	0
   788     077A  1283               	bcf	3,5	;RP0=0, select bank0
   789     077B  1303               	bcf	3,6	;RP1=0, select bank0
   790     077C  1A8C               	btfsc	12,5	;volatile
   791     077D  3001               	movlw	1
   792     077E                     l59:
   793     077E  0008               	return
   794     077F                     __end_of_UART_Data_Ready:
   795     0001                     ___latbits      equ	1
   796     007E                     btemp           set	126	;btemp
   797     007E                     wtemp0          set	126
   798                           
   799                           	psect	idloc
   800                           
   801                           ;Config register IDLOC0 @ 0x2000
   802                           ;	unspecified, using default values
   803     2000                     	org	8192
   804     2000  3FFF               	dw	16383
   805                           
   806                           ;Config register IDLOC1 @ 0x2001
   807                           ;	unspecified, using default values
   808     2001                     	org	8193
   809     2001  3FFF               	dw	16383
   810                           
   811                           ;Config register IDLOC2 @ 0x2002
   812                           ;	unspecified, using default values
   813     2002                     	org	8194
   814     2002  3FFF               	dw	16383
   815                           
   816                           ;Config register IDLOC3 @ 0x2003
   817                           ;	unspecified, using default values
   818     2003                     	org	8195
   819     2003  3FFF               	dw	16383
   820                           
   821                           	psect	config
   822                           
   823                           ;Config register CONFIG1 @ 0x2007
   824                           ;	Oscillator Selection bits
   825                           ;	FOSC = INTOSCIO, INTRC oscillator; port I/O function on both RA6/OSC2/CLKO pin and RA7
      +                          /OSC1/CLKI pin
   826                           ;	Watchdog Timer Enable bit
   827                           ;	WDTE = OFF, WDT disabled
   828                           ;	Power-up Timer Enable bit
   829                           ;	PWRTE = ON, PWRT enabled
   830                           ;	RA5/MCLR/VPP Pin Function Select bit
   831                           ;	MCLRE = ON, RA5/MCLR/VPP pin function is MCLR
   832                           ;	Brown-out Reset Enable bit
   833                           ;	BOREN = OFF, BOR disabled
   834                           ;	Low-Voltage Programming Enable bit
   835                           ;	LVP = OFF, RB3 is digital I/O, HV on MCLR must be used for programming
   836                           ;	Data EE Memory Code Protection bit
   837                           ;	CPD = OFF, Code protection off
   838                           ;	Flash Program Memory Write Enable bits
   839                           ;	WRT = OFF, Write protection off
   840                           ;	In-Circuit Debugger Mode bit
   841                           ;	DEBUG = 0x1, unprogrammed default
   842                           ;	CCP1 Pin Selection bit
   843                           ;	CCPMX = RB0, CCP1 function on RB0
   844                           ;	Flash Program Memory Code Protection bit
   845                           ;	CP = OFF, Code protection off
   846     2007                     	org	8199
   847     2007  3F30               	dw	16176
   848                           
   849                           ;Config register CONFIG2 @ 0x2008
   850                           ;	Fail-Safe Clock Monitor Enable bit
   851                           ;	FCMEN = OFF, Fail-Safe Clock Monitor disabled
   852                           ;	Internal External Switchover bit
   853                           ;	IESO = OFF, Internal External Switchover mode disabled
   854     2008                     	org	8200
   855     2008  3FFC               	dw	16380

Data Sizes:
    Strings     31
    Constant    0
    Data        0
    BSS         0
    Persistent  0
    Stack       0

Auto Spaces:
    Space          Size  Autos    Used
    COMMON           14      8       8
    BANK0            80      0       0
    BANK1            80      0       0
    BANK3            96      0       0
    BANK2            96      0       0

Pointer List with Targets:

    UART_Write_Text@text	PTR unsigned char  size(1) Largest target is 24
		 -> STR_1(CODE[24]), STR_2(CODE[7]), 


Critical Paths under _main in COMMON

    _main->_UART_Write_Text
    _UART_Write_Text->_UART_Write

Critical Paths under _main in BANK0

    None.

Critical Paths under _main in BANK1

    None.

Critical Paths under _main in BANK3

    None.

Critical Paths under _main in BANK2

    None.

Call Graph Tables:

 ---------------------------------------------------------------------------------
 (Depth) Function   	        Calls       Base Space   Used Autos Params    Refs
 ---------------------------------------------------------------------------------
 (0) _main                                                 4     4      0     145
                                              4 COMMON     4     4      0
                    _UART_Data_Ready
                          _UART_Init
                          _UART_Read
                         _UART_Write
                    _UART_Write_Text
 ---------------------------------------------------------------------------------
 (1) _UART_Write_Text                                      3     2      1     107
                                              1 COMMON     3     2      1
                         _UART_Write
 ---------------------------------------------------------------------------------
 (2) _UART_Write                                           1     1      0      15
                                              0 COMMON     1     1      0
 ---------------------------------------------------------------------------------
 (1) _UART_Read                                            0     0      0       0
 ---------------------------------------------------------------------------------
 (1) _UART_Init                                            0     0      0       0
 ---------------------------------------------------------------------------------
 (1) _UART_Data_Ready                                      0     0      0       0
 ---------------------------------------------------------------------------------
 Estimated maximum stack depth 2
 ---------------------------------------------------------------------------------

 Call Graph Graphs:

 _main (ROOT)
   _UART_Data_Ready
   _UART_Init
   _UART_Read
   _UART_Write
   _UART_Write_Text
     _UART_Write

Address spaces:
Name               Size   Autos  Total    Usage
BITCOMMON           14      0       0      0.0%
BITBANK0            80      0       0      0.0%
BITBANK1            80      0       0      0.0%
BITBANK3            96      0       0      0.0%
BITBANK2            96      0       0      0.0%
COMMON              14      8       8     57.1%
BANK0               80      0       0      0.0%
BANK1               80      0       0      0.0%
BANK3               96      0       0      0.0%
BANK2               96      0       0      0.0%
STACK                0      0       0      0.0%
DATA                 0      0       8      0.0%


Microchip Technology PIC Macro Assembler V3.00 build 20241204225717 
Symbol Table                                                                                   Fri Jan 16 00:35:53 2026

                      pc 0002                       l50 07A4                       l53 0788  
                     l62 077F                       l71 07C2                       l56 0792  
                     l65 0786                       l59 077E                       u10 078E  
                     u11 078D                       u30 0785                       u31 0784  
                     u50 07C2                       u51 07C1                       u60 07E5  
                     u61 07E4                       u77 07D6                       fsr 0004  
                    l615 0788                      l633 077F                      l617 078E  
                    l619 0793                      l635 0785                      l629 0779  
                    l661 07A5                      l663 07A8                      l671 07C7  
                    l665 07B1                      l681 07E5                      l673 07C8  
                    l667 07B7                      l683 07E9                      l675 07CB  
                    l685 07EE                      l677 07D0                      l669 07C3  
                    l687 07F2                      l679 07DD                      l689 07F6  
                    fsr0 0004                     STR_1 0008                     STR_2 0020  
                   _BRGH 04C2                     _CREN 00C4                     _RCIF 0065  
                   _SPEN 00C7                     _TRMT 04C1                     _TXEN 04C5  
                   _SYNC 04C4                     _main 07C3                     btemp 007E  
                   start 0000  __end_of_UART_Write_Text 07C3                    ?_main 0070  
                  _ANSEL 009B                    _RCREG 001A                    _SPBRG 0099  
                  _TXREG 0019              ?_UART_Write 0070                    main@c 0077  
                  pclath 000A                    status 0003                    wtemp0 007E  
        __initialization 07FD             __end_of_main 07FD                   ??_main 0074  
                 _OSCCON 008F        __end_of_UART_Init 07A5        __end_of_UART_Read 0787  
       ?_UART_Write_Text 0071  __end_of__initialization 07FD           __pcstackCOMMON 0070  
             __pmaintext 07C3             ??_UART_Write 0070               __stringtab 0002  
     __end_of_UART_Write 0793                  __ptext1 07A5                  __ptext2 0787  
                __ptext3 077F                  __ptext4 0793                  __ptext5 0779  
   end_of_initialization 07FD        ??_UART_Data_Ready 0070                _UART_Init 0793  
              _UART_Read 077F           UART_Write@data 0070                _TRISBbits 0086  
             ?_UART_Init 0070               ?_UART_Read 0070      start_initialization 07FD  
              ___latbits 0001              ??_UART_Init 0070              ??_UART_Read 0070  
              __pstrings 0002        ??_UART_Write_Text 0072          _UART_Data_Ready 0779  
            __stringbase 0007       __end_of__stringtab 0008  __end_of_UART_Data_Ready 077F  
    UART_Write_Text@text 0071                stringcode 0002          _UART_Write_Text 07A5  
               stringdir 0002                 stringtab 0002               _UART_Write 0787  
       ?_UART_Data_Ready 0070         UART_Write_Text@i 0072  
